
shell.elf:     file format elf32-msp430


Disassembly of section .text:

0000c000 <__watchdog_support>:
    c000:	55 42 20 01 	mov.b	&0x0120,r5	
    c004:	35 d0 08 5a 	bis	#23048,	r5	;#0x5a08
    c008:	82 45 4a 02 	mov	r5,	&0x024a	

0000c00c <__init_stack>:
    c00c:	31 40 00 04 	mov	#1024,	r1	;#0x0400

0000c010 <__do_copy_data>:
    c010:	3f 40 3c 00 	mov	#60,	r15	;#0x003c
    c014:	0f 93       	tst	r15		
    c016:	08 24       	jz	$+18     	;abs 0xc028
    c018:	92 42 4a 02 	mov	&0x024a,&0x0120	
    c01c:	20 01 
    c01e:	2f 83       	decd	r15		
    c020:	9f 4f fa ca 	mov	-13574(r15),512(r15);0xcafa(r15), 0x0200(r15)
    c024:	00 02 
    c026:	f8 23       	jnz	$-14     	;abs 0xc018

0000c028 <__do_clear_bss>:
    c028:	3f 40 0e 00 	mov	#14,	r15	;#0x000e
    c02c:	0f 93       	tst	r15		
    c02e:	07 24       	jz	$+16     	;abs 0xc03e
    c030:	92 42 4a 02 	mov	&0x024a,&0x0120	
    c034:	20 01 
    c036:	1f 83       	dec	r15		
    c038:	cf 43 3c 02 	mov.b	#0,	572(r15);r3 As==00, 0x023c(r15)
    c03c:	f9 23       	jnz	$-12     	;abs 0xc030

0000c03e <main>:
    c03e:	31 50 a2 ff 	add	#-94,	r1	;#0xffa2
    c042:	b2 40 80 5a 	mov	#23168,	&0x0120	;#0x5a80
    c046:	20 01 
    c048:	5f 42 ff 10 	mov.b	&0x10ff,r15	
    c04c:	c2 4f 57 00 	mov.b	r15,	&0x0057	
    c050:	5f 42 fe 10 	mov.b	&0x10fe,r15	
    c054:	c2 4f 56 00 	mov.b	r15,	&0x0056	
    c058:	f2 43 22 00 	mov.b	#-1,	&0x0022	;r3 As==11
    c05c:	c2 43 21 00 	mov.b	#0,	&0x0021	;r3 As==00
    c060:	5f 42 2e 00 	mov.b	&0x002e,r15	
    c064:	7f f0 3f 00 	and.b	#63,	r15	;#0x003f
    c068:	c2 4f 2e 00 	mov.b	r15,	&0x002e	
    c06c:	c2 43 2a 00 	mov.b	#0,	&0x002a	;r3 As==00
    c070:	f2 40 80 ff 	mov.b	#-128,	&0x0029	;#0xff80
    c074:	29 00 
    c076:	b2 40 d0 02 	mov	#720,	&0x0160	;#0x02d0
    c07a:	60 01 
    c07c:	b2 40 10 00 	mov	#16,	&0x0162	;#0x0010
    c080:	62 01 
    c082:	b2 40 f3 01 	mov	#499,	&0x0172	;#0x01f3
    c086:	72 01 
    c088:	b2 40 80 00 	mov	#128,	&0x0164	;#0x0080
    c08c:	64 01 
    c08e:	3f 40 80 25 	mov	#9600,	r15	;#0x2580
    c092:	b0 12 be c8 	call	#0xc8be	
    c096:	32 d2       	eint			
    c098:	81 43 00 00 	mov	#0,	0(r1)	;r3 As==00, 0x0000(r1)
    c09c:	0f 41       	mov	r1,	r15	
    c09e:	3f 50 03 00 	add	#3,	r15	;#0x0003
    c0a2:	3e 40 5a 00 	mov	#90,	r14	;#0x005a
    c0a6:	0d 4e       	mov	r14,	r13	
    c0a8:	0e 43       	clr	r14		
    c0aa:	b0 12 52 c9 	call	#0xc952	
    c0ae:	3f 40 52 ca 	mov	#-13742,r15	;#0xca52
    c0b2:	b0 12 96 c5 	call	#0xc596	
    c0b6:	b0 12 8e c7 	call	#0xc78e	
    c0ba:	c1 4f 02 00 	mov.b	r15,	2(r1)	;0x0002(r1)
    c0be:	2a 3c       	jmp	$+86     	;abs 0xc114
    c0c0:	f1 92 02 00 	cmp.b	#8,	2(r1)	;r2 As==11, 0x0002(r1)
    c0c4:	16 20       	jnz	$+46     	;abs 0xc0f2
    c0c6:	81 93 00 00 	tst	0(r1)		;0x0000(r1)
    c0ca:	20 24       	jz	$+66     	;abs 0xc10c
    c0cc:	b1 53 00 00 	add	#-1,	0(r1)	;r3 As==11, 0x0000(r1)
    c0d0:	0f 41       	mov	r1,	r15	
    c0d2:	3f 50 03 00 	add	#3,	r15	;#0x0003
    c0d6:	2f 51       	add	@r1,	r15	
    c0d8:	cf 43 00 00 	mov.b	#0,	0(r15)	;r3 As==00, 0x0000(r15)
    c0dc:	7f 42       	mov.b	#8,	r15	;r2 As==11
    c0de:	b0 12 88 c7 	call	#0xc788	
    c0e2:	7f 40 20 00 	mov.b	#32,	r15	;#0x0020
    c0e6:	b0 12 88 c7 	call	#0xc788	
    c0ea:	7f 42       	mov.b	#8,	r15	;r2 As==11
    c0ec:	b0 12 88 c7 	call	#0xc788	
    c0f0:	0d 3c       	jmp	$+28     	;abs 0xc10c
    c0f2:	0f 41       	mov	r1,	r15	
    c0f4:	3f 50 03 00 	add	#3,	r15	;#0x0003
    c0f8:	2f 51       	add	@r1,	r15	
    c0fa:	df 41 02 00 	mov.b	2(r1),	0(r15)	;0x0002(r1), 0x0000(r15)
    c0fe:	00 00 
    c100:	91 53 00 00 	inc	0(r1)		;0x0000(r1)
    c104:	5f 41 02 00 	mov.b	2(r1),	r15	;0x0002(r1)
    c108:	b0 12 88 c7 	call	#0xc788	
    c10c:	b0 12 8e c7 	call	#0xc78e	
    c110:	c1 4f 02 00 	mov.b	r15,	2(r1)	;0x0002(r1)
    c114:	f1 90 0d 00 	cmp.b	#13,	2(r1)	;#0x000d, 0x0002(r1)
    c118:	02 00 
    c11a:	d2 23       	jnz	$-90     	;abs 0xc0c0
    c11c:	3f 40 55 ca 	mov	#-13739,r15	;#0xca55
    c120:	b0 12 96 c5 	call	#0xc596	
    c124:	0f 41       	mov	r1,	r15	
    c126:	3f 50 03 00 	add	#3,	r15	;#0x0003
    c12a:	b0 12 76 c2 	call	#0xc276	
    c12e:	3f 90 f1 ff 	cmp	#-15,	r15	;#0xfff1
    c132:	0c 24       	jz	$+26     	;abs 0xc14c
    c134:	3f 90 f2 ff 	cmp	#-14,	r15	;#0xfff2
    c138:	04 24       	jz	$+10     	;abs 0xc142
    c13a:	3f 90 f0 ff 	cmp	#-16,	r15	;#0xfff0
    c13e:	0b 24       	jz	$+24     	;abs 0xc156
    c140:	0f 3c       	jmp	$+32     	;abs 0xc160
    c142:	3f 40 59 ca 	mov	#-13735,r15	;#0xca59
    c146:	b0 12 96 c5 	call	#0xc596	
    c14a:	0b 3c       	jmp	$+24     	;abs 0xc162
    c14c:	3f 40 78 ca 	mov	#-13704,r15	;#0xca78
    c150:	b0 12 96 c5 	call	#0xc596	
    c154:	06 3c       	jmp	$+14     	;abs 0xc162
    c156:	3f 40 9d ca 	mov	#-13667,r15	;#0xca9d
    c15a:	b0 12 96 c5 	call	#0xc596	
    c15e:	01 3c       	jmp	$+4      	;abs 0xc162
    c160:	03 43       	nop			
    c162:	3f 40 c0 ca 	mov	#-13632,r15	;#0xcac0
    c166:	b0 12 96 c5 	call	#0xc596	
    c16a:	96 3f       	jmp	$-210    	;abs 0xc098

0000c16c <__stop_progExec__>:
    c16c:	32 d0 f0 00 	bis	#240,	r2	;#0x00f0
    c170:	fd 3f       	jmp	$-4      	;abs 0xc16c

0000c172 <__ctors_end>:
    c172:	30 40 bc c9 	br	#0xc9bc	

0000c176 <shell_cmd_help>:
    c176:	21 82       	sub	#4,	r1	;r2 As==10
    c178:	81 4f 02 00 	mov	r15,	2(r1)	;0x0002(r1)
    c17c:	81 43 00 00 	mov	#0,	0(r1)	;r3 As==00, 0x0000(r1)
    c180:	1a 3c       	jmp	$+54     	;abs 0xc1b6
    c182:	2e 41       	mov	@r1,	r14	
    c184:	0f 4e       	mov	r14,	r15	
    c186:	0f 5f       	rla	r15		
    c188:	0f 5e       	add	r14,	r15	
    c18a:	0f 5f       	rla	r15		
    c18c:	3f 50 2c 02 	add	#556,	r15	;#0x022c
    c190:	2d 4f       	mov	@r15,	r13	
    c192:	2e 41       	mov	@r1,	r14	
    c194:	0f 4e       	mov	r14,	r15	
    c196:	0f 5f       	rla	r15		
    c198:	0f 5e       	add	r14,	r15	
    c19a:	0f 5f       	rla	r15		
    c19c:	3f 50 2a 02 	add	#554,	r15	;#0x022a
    c1a0:	2f 4f       	mov	@r15,	r15	
    c1a2:	0d 12       	push	r13		
    c1a4:	0f 12       	push	r15		
    c1a6:	30 12 33 ca 	push	#-13773	;#0xca33
    c1aa:	b0 12 5e c6 	call	#0xc65e	
    c1ae:	31 50 06 00 	add	#6,	r1	;#0x0006
    c1b2:	91 53 00 00 	inc	0(r1)		;0x0000(r1)
    c1b6:	5f 42 28 02 	mov.b	&0x0228,r15	
    c1ba:	4f 4f       	mov.b	r15,	r15	
    c1bc:	81 9f 00 00 	cmp	r15,	0(r1)	;0x0000(r1)
    c1c0:	e0 3b       	jl	$-62     	;abs 0xc182
    c1c2:	0f 43       	clr	r15		
    c1c4:	21 52       	add	#4,	r1	;r2 As==10
    c1c6:	30 41       	ret			

0000c1c8 <shell_cmd_argt>:
    c1c8:	21 82       	sub	#4,	r1	;r2 As==10
    c1ca:	81 4f 02 00 	mov	r15,	2(r1)	;0x0002(r1)
    c1ce:	3f 40 3c ca 	mov	#-13764,r15	;#0xca3c
    c1d2:	b0 12 96 c5 	call	#0xc596	
    c1d6:	81 43 00 00 	mov	#0,	0(r1)	;r3 As==00, 0x0000(r1)
    c1da:	10 3c       	jmp	$+34     	;abs 0xc1fc
    c1dc:	2f 41       	mov	@r1,	r15	
    c1de:	0f 5f       	rla	r15		
    c1e0:	0f 5f       	rla	r15		
    c1e2:	0f 5f       	rla	r15		
    c1e4:	0f 5f       	rla	r15		
    c1e6:	2f 53       	incd	r15		
    c1e8:	1f 51 02 00 	add	2(r1),	r15	;0x0002(r1)
    c1ec:	0f 12       	push	r15		
    c1ee:	30 12 4a ca 	push	#-13750	;#0xca4a
    c1f2:	b0 12 5e c6 	call	#0xc65e	
    c1f6:	21 52       	add	#4,	r1	;r2 As==10
    c1f8:	91 53 00 00 	inc	0(r1)		;0x0000(r1)
    c1fc:	1f 41 02 00 	mov	2(r1),	r15	;0x0002(r1)
    c200:	6f 4f       	mov.b	@r15,	r15	
    c202:	4f 4f       	mov.b	r15,	r15	
    c204:	81 9f 00 00 	cmp	r15,	0(r1)	;0x0000(r1)
    c208:	e9 3b       	jl	$-44     	;abs 0xc1dc
    c20a:	0f 43       	clr	r15		
    c20c:	21 52       	add	#4,	r1	;r2 As==10
    c20e:	30 41       	ret			

0000c210 <shell_cmd_hexd>:
    c210:	31 50 fa ff 	add	#-6,	r1	;#0xfffa
    c214:	81 4f 04 00 	mov	r15,	4(r1)	;0x0004(r1)
    c218:	3f 40 3c ca 	mov	#-13764,r15	;#0xca3c
    c21c:	b0 12 96 c5 	call	#0xc596	
    c220:	81 43 00 00 	mov	#0,	0(r1)	;r3 As==00, 0x0000(r1)
    c224:	0b 3c       	jmp	$+24     	;abs 0xc23c
    c226:	1f 41 04 00 	mov	4(r1),	r15	;0x0004(r1)
    c22a:	2f 53       	incd	r15		
    c22c:	0f 12       	push	r15		
    c22e:	30 12 4a ca 	push	#-13750	;#0xca4a
    c232:	b0 12 5e c6 	call	#0xc65e	
    c236:	21 52       	add	#4,	r1	;r2 As==10
    c238:	91 53 00 00 	inc	0(r1)		;0x0000(r1)
    c23c:	1f 41 04 00 	mov	4(r1),	r15	;0x0004(r1)
    c240:	6f 4f       	mov.b	@r15,	r15	
    c242:	4f 4f       	mov.b	r15,	r15	
    c244:	81 9f 00 00 	cmp	r15,	0(r1)	;0x0000(r1)
    c248:	ee 3b       	jl	$-34     	;abs 0xc226
    c24a:	1f 41 04 00 	mov	4(r1),	r15	;0x0004(r1)
    c24e:	2f 53       	incd	r15		
    c250:	81 4f 02 00 	mov	r15,	2(r1)	;0x0002(r1)
    c254:	1f 41 02 00 	mov	2(r1),	r15	;0x0002(r1)
    c258:	6f 4f       	mov.b	@r15,	r15	
    c25a:	8f 11       	sxt	r15		
    c25c:	82 4f 3e 02 	mov	r15,	&0x023e	
    c260:	1f 41 02 00 	mov	2(r1),	r15	;0x0002(r1)
    c264:	1f 53       	inc	r15		
    c266:	6f 4f       	mov.b	@r15,	r15	
    c268:	8f 11       	sxt	r15		
    c26a:	82 4f 40 02 	mov	r15,	&0x0240	
    c26e:	0f 43       	clr	r15		
    c270:	31 50 06 00 	add	#6,	r1	;#0x0006
    c274:	30 41       	ret			

0000c276 <shell_process>:
    c276:	21 83       	decd	r1		
    c278:	81 4f 00 00 	mov	r15,	0(r1)	;0x0000(r1)
    c27c:	2e 41       	mov	@r1,	r14	
    c27e:	3f 40 28 02 	mov	#552,	r15	;#0x0228
    c282:	b0 12 8e c4 	call	#0xc48e	
    c286:	21 53       	incd	r1		
    c288:	30 41       	ret			

0000c28a <Timer0_A0_ISR>:
    c28a:	0f 12       	push	r15		
    c28c:	1f 42 3e 02 	mov	&0x023e,r15	
    c290:	0f 93       	tst	r15		
    c292:	02 34       	jge	$+6      	;abs 0xc298
    c294:	3f 50 0f 00 	add	#15,	r15	;#0x000f
    c298:	0f 11       	rra	r15		
    c29a:	0f 11       	rra	r15		
    c29c:	0f 11       	rra	r15		
    c29e:	0f 11       	rra	r15		
    c2a0:	82 4f 42 02 	mov	r15,	&0x0242	
    c2a4:	1f 42 3e 02 	mov	&0x023e,r15	
    c2a8:	3f f0 0f 80 	and	#-32753,r15	;#0x800f
    c2ac:	0f 93       	tst	r15		
    c2ae:	04 34       	jge	$+10     	;abs 0xc2b8
    c2b0:	3f 53       	add	#-1,	r15	;r3 As==11
    c2b2:	3f d0 f0 ff 	bis	#-16,	r15	;#0xfff0
    c2b6:	1f 53       	inc	r15		
    c2b8:	82 4f 44 02 	mov	r15,	&0x0244	
    c2bc:	1f 42 40 02 	mov	&0x0240,r15	
    c2c0:	0f 93       	tst	r15		
    c2c2:	02 34       	jge	$+6      	;abs 0xc2c8
    c2c4:	3f 50 0f 00 	add	#15,	r15	;#0x000f
    c2c8:	0f 11       	rra	r15		
    c2ca:	0f 11       	rra	r15		
    c2cc:	0f 11       	rra	r15		
    c2ce:	0f 11       	rra	r15		
    c2d0:	82 4f 46 02 	mov	r15,	&0x0246	
    c2d4:	1f 42 40 02 	mov	&0x0240,r15	
    c2d8:	3f f0 0f 80 	and	#-32753,r15	;#0x800f
    c2dc:	0f 93       	tst	r15		
    c2de:	04 34       	jge	$+10     	;abs 0xc2e8
    c2e0:	3f 53       	add	#-1,	r15	;r3 As==11
    c2e2:	3f d0 f0 ff 	bis	#-16,	r15	;#0xfff0
    c2e6:	1f 53       	inc	r15		
    c2e8:	82 4f 48 02 	mov	r15,	&0x0248	
    c2ec:	f2 40 0f 00 	mov.b	#15,	&0x0021	;#0x000f
    c2f0:	21 00 
    c2f2:	1f 42 3c 02 	mov	&0x023c,r15	
    c2f6:	1f 53       	inc	r15		
    c2f8:	82 4f 3c 02 	mov	r15,	&0x023c	
    c2fc:	1f 42 3c 02 	mov	&0x023c,r15	
    c300:	1f 93       	cmp	#1,	r15	;r3 As==01
    c302:	05 38       	jl	$+12     	;abs 0xc30e
    c304:	1f 42 3c 02 	mov	&0x023c,r15	
    c308:	3f 90 05 00 	cmp	#5,	r15	;#0x0005
    c30c:	02 38       	jl	$+6      	;abs 0xc312
    c30e:	92 43 3c 02 	mov	#1,	&0x023c	;r3 As==01
    c312:	1f 42 3e 02 	mov	&0x023e,r15	
    c316:	0f 93       	tst	r15		
    c318:	07 20       	jnz	$+16     	;abs 0xc328
    c31a:	1f 42 40 02 	mov	&0x0240,r15	
    c31e:	0f 93       	tst	r15		
    c320:	03 20       	jnz	$+8      	;abs 0xc328
    c322:	c2 43 21 00 	mov.b	#0,	&0x0021	;r3 As==00
    c326:	0a 3c       	jmp	$+22     	;abs 0xc33c
    c328:	1f 42 3c 02 	mov	&0x023c,r15	
    c32c:	3f 53       	add	#-1,	r15	;r3 As==11
    c32e:	0f 5f       	rla	r15		
    c330:	3f 50 20 02 	add	#544,	r15	;#0x0220
    c334:	2f 4f       	mov	@r15,	r15	
    c336:	4f 4f       	mov.b	r15,	r15	
    c338:	c2 4f 21 00 	mov.b	r15,	&0x0021	
    c33c:	1f 42 3c 02 	mov	&0x023c,r15	
    c340:	3f 53       	add	#-1,	r15	;r3 As==11
    c342:	0f 5f       	rla	r15		
    c344:	3f 50 42 02 	add	#578,	r15	;#0x0242
    c348:	2f 4f       	mov	@r15,	r15	
    c34a:	0f 5f       	rla	r15		
    c34c:	3f 50 00 02 	add	#512,	r15	;#0x0200
    c350:	2f 4f       	mov	@r15,	r15	
    c352:	4f 4f       	mov.b	r15,	r15	
    c354:	c2 4f 2a 00 	mov.b	r15,	&0x002a	
    c358:	3f 41       	pop	r15		
    c35a:	00 13       	reti			

0000c35c <shell_str_len>:
    c35c:	0e 4f       	mov	r15,	r14	
    c35e:	0f 43       	clr	r15		
    c360:	01 3c       	jmp	$+4      	;abs 0xc364
    c362:	0f 4c       	mov	r12,	r15	
    c364:	0c 4f       	mov	r15,	r12	
    c366:	1c 53       	inc	r12		
    c368:	0d 4e       	mov	r14,	r13	
    c36a:	0d 5f       	add	r15,	r13	
    c36c:	cd 93 00 00 	tst.b	0(r13)		;0x0000(r13)
    c370:	f8 23       	jnz	$-14     	;abs 0xc362
    c372:	30 41       	ret			

0000c374 <shell_str_cmp>:
    c374:	0b 12       	push	r11		
    c376:	0a 12       	push	r10		
    c378:	09 12       	push	r9		
    c37a:	0c 9d       	cmp	r13,	r12	
    c37c:	14 38       	jl	$+42     	;abs 0xc3a6
    c37e:	0b 43       	clr	r11		
    c380:	08 3c       	jmp	$+18     	;abs 0xc392
    c382:	09 4f       	mov	r15,	r9	
    c384:	09 5b       	add	r11,	r9	
    c386:	0a 4e       	mov	r14,	r10	
    c388:	0a 5b       	add	r11,	r10	
    c38a:	e9 9a 00 00 	cmp.b	@r10,	0(r9)	;0x0000(r9)
    c38e:	0f 20       	jnz	$+32     	;abs 0xc3ae
    c390:	1b 53       	inc	r11		
    c392:	0b 9d       	cmp	r13,	r11	
    c394:	f6 3b       	jl	$-18     	;abs 0xc382
    c396:	0d 9c       	cmp	r12,	r13	
    c398:	08 34       	jge	$+18     	;abs 0xc3aa
    c39a:	0b 5e       	add	r14,	r11	
    c39c:	fb 90 20 00 	cmp.b	#32,	0(r11)	;#0x0020, 0x0000(r11)
    c3a0:	00 00 
    c3a2:	05 20       	jnz	$+12     	;abs 0xc3ae
    c3a4:	02 3c       	jmp	$+6      	;abs 0xc3aa
    c3a6:	1f 43       	mov	#1,	r15	;r3 As==01
    c3a8:	03 3c       	jmp	$+8      	;abs 0xc3b0
    c3aa:	0f 43       	clr	r15		
    c3ac:	01 3c       	jmp	$+4      	;abs 0xc3b0
    c3ae:	2f 43       	mov	#2,	r15	;r3 As==10
    c3b0:	39 41       	pop	r9		
    c3b2:	3a 41       	pop	r10		
    c3b4:	3b 41       	pop	r11		
    c3b6:	30 41       	ret			

0000c3b8 <shell_parse_int>:
    c3b8:	0d 43       	clr	r13		
    c3ba:	11 3c       	jmp	$+36     	;abs 0xc3de
    c3bc:	1f 53       	inc	r15		
    c3be:	4e 4c       	mov.b	r12,	r14	
    c3c0:	7e 50 d0 ff 	add.b	#-48,	r14	;#0xffd0
    c3c4:	7e 90 0a 00 	cmp.b	#10,	r14	;#0x000a
    c3c8:	0d 2c       	jc	$+28     	;abs 0xc3e4
    c3ca:	0d 5d       	rla	r13		
    c3cc:	0e 4d       	mov	r13,	r14	
    c3ce:	0e 5e       	rla	r14		
    c3d0:	0e 5e       	rla	r14		
    c3d2:	0d 5e       	add	r14,	r13	
    c3d4:	4e 4c       	mov.b	r12,	r14	
    c3d6:	8e 11       	sxt	r14		
    c3d8:	3e 50 d0 ff 	add	#-48,	r14	;#0xffd0
    c3dc:	0d 5e       	add	r14,	r13	
    c3de:	6c 4f       	mov.b	@r15,	r12	
    c3e0:	4c 93       	tst.b	r12		
    c3e2:	ec 23       	jnz	$-38     	;abs 0xc3bc
    c3e4:	0f 4d       	mov	r13,	r15	
    c3e6:	30 41       	ret			

0000c3e8 <shell_arg_parser>:
    c3e8:	0b 12       	push	r11		
    c3ea:	0a 12       	push	r10		
    c3ec:	09 12       	push	r9		
    c3ee:	08 12       	push	r8		
    c3f0:	07 12       	push	r7		
    c3f2:	06 12       	push	r6		
    c3f4:	05 12       	push	r5		
    c3f6:	0a 43       	clr	r10		
    c3f8:	0c 43       	clr	r12		
    c3fa:	0b 43       	clr	r11		
    c3fc:	08 4e       	mov	r14,	r8	
    c3fe:	38 53       	add	#-1,	r8	;r3 As==11
    c400:	35 3c       	jmp	$+108    	;abs 0xc46c
    c402:	3a 90 06 00 	cmp	#6,	r10	;#0x0006
    c406:	38 34       	jge	$+114    	;abs 0xc478
    c408:	09 4f       	mov	r15,	r9	
    c40a:	09 5b       	add	r11,	r9	
    c40c:	f9 90 20 00 	cmp.b	#32,	0(r9)	;#0x0020, 0x0000(r9)
    c410:	00 00 
    c412:	02 24       	jz	$+6      	;abs 0xc418
    c414:	0b 98       	cmp	r8,	r11	
    c416:	29 20       	jnz	$+84     	;abs 0xc46a
    c418:	0b 98       	cmp	r8,	r11	
    c41a:	01 20       	jnz	$+4      	;abs 0xc41e
    c41c:	0b 4e       	mov	r14,	r11	
    c41e:	0c 93       	tst	r12		
    c420:	23 24       	jz	$+72     	;abs 0xc468
    c422:	07 4b       	mov	r11,	r7	
    c424:	07 8c       	sub	r12,	r7	
    c426:	37 90 10 00 	cmp	#16,	r7	;#0x0010
    c42a:	28 34       	jge	$+82     	;abs 0xc47c
    c42c:	09 43       	clr	r9		
    c42e:	37 53       	add	#-1,	r7	;r3 As==11
    c430:	05 4f       	mov	r15,	r5	
    c432:	05 5c       	add	r12,	r5	
    c434:	0d 3c       	jmp	$+28     	;abs 0xc450
    c436:	06 45       	mov	r5,	r6	
    c438:	06 59       	add	r9,	r6	
    c43a:	0c 4a       	mov	r10,	r12	
    c43c:	0c 5c       	rla	r12		
    c43e:	0c 5c       	rla	r12		
    c440:	0c 5c       	rla	r12		
    c442:	0c 5c       	rla	r12		
    c444:	0c 5d       	add	r13,	r12	
    c446:	0c 59       	add	r9,	r12	
    c448:	dc 46 01 00 	mov.b	1(r6),	2(r12)	;0x0001(r6), 0x0002(r12)
    c44c:	02 00 
    c44e:	19 53       	inc	r9		
    c450:	09 97       	cmp	r7,	r9	
    c452:	f1 3b       	jl	$-28     	;abs 0xc436
    c454:	0c 4a       	mov	r10,	r12	
    c456:	0c 5c       	rla	r12		
    c458:	0c 5c       	rla	r12		
    c45a:	0c 5c       	rla	r12		
    c45c:	0c 5c       	rla	r12		
    c45e:	0c 5d       	add	r13,	r12	
    c460:	0c 59       	add	r9,	r12	
    c462:	cc 43 02 00 	mov.b	#0,	2(r12)	;r3 As==00, 0x0002(r12)
    c466:	1a 53       	inc	r10		
    c468:	0c 4b       	mov	r11,	r12	
    c46a:	1b 53       	inc	r11		
    c46c:	0b 9e       	cmp	r14,	r11	
    c46e:	c9 3b       	jl	$-108    	;abs 0xc402
    c470:	cd 4a 00 00 	mov.b	r10,	0(r13)	;0x0000(r13)
    c474:	0f 43       	clr	r15		
    c476:	03 3c       	jmp	$+8      	;abs 0xc47e
    c478:	1f 43       	mov	#1,	r15	;r3 As==01
    c47a:	01 3c       	jmp	$+4      	;abs 0xc47e
    c47c:	2f 43       	mov	#2,	r15	;r3 As==10
    c47e:	35 41       	pop	r5		
    c480:	36 41       	pop	r6		
    c482:	37 41       	pop	r7		
    c484:	38 41       	pop	r8		
    c486:	39 41       	pop	r9		
    c488:	3a 41       	pop	r10		
    c48a:	3b 41       	pop	r11		
    c48c:	30 41       	ret			

0000c48e <shell_process_cmds>:
    c48e:	0b 12       	push	r11		
    c490:	0a 12       	push	r10		
    c492:	09 12       	push	r9		
    c494:	08 12       	push	r8		
    c496:	07 12       	push	r7		
    c498:	06 12       	push	r6		
    c49a:	31 50 ae ff 	add	#-82,	r1	;#0xffae
    c49e:	0b 4f       	mov	r15,	r11	
    c4a0:	08 4e       	mov	r14,	r8	
    c4a2:	09 4f       	mov	r15,	r9	
    c4a4:	0a 43       	clr	r10		
    c4a6:	27 3c       	jmp	$+80     	;abs 0xc4f6
    c4a8:	0f 48       	mov	r8,	r15	
    c4aa:	b0 12 5c c3 	call	#0xc35c	
    c4ae:	07 4f       	mov	r15,	r7	
    c4b0:	16 49 02 00 	mov	2(r9),	r6	;0x0002(r9)
    c4b4:	0f 46       	mov	r6,	r15	
    c4b6:	b0 12 5c c3 	call	#0xc35c	
    c4ba:	0c 47       	mov	r7,	r12	
    c4bc:	0d 4f       	mov	r15,	r13	
    c4be:	0e 48       	mov	r8,	r14	
    c4c0:	0f 46       	mov	r6,	r15	
    c4c2:	b0 12 74 c3 	call	#0xc374	
    c4c6:	39 50 06 00 	add	#6,	r9	;#0x0006
    c4ca:	0f 93       	tst	r15		
    c4cc:	13 20       	jnz	$+40     	;abs 0xc4f4
    c4ce:	0d 41       	mov	r1,	r13	
    c4d0:	0e 47       	mov	r7,	r14	
    c4d2:	0f 48       	mov	r8,	r15	
    c4d4:	b0 12 e8 c3 	call	#0xc3e8	
    c4d8:	1f 93       	cmp	#1,	r15	;r3 As==01
    c4da:	13 24       	jz	$+40     	;abs 0xc502
    c4dc:	2f 93       	cmp	#2,	r15	;r3 As==10
    c4de:	14 24       	jz	$+42     	;abs 0xc508
    c4e0:	0e 4a       	mov	r10,	r14	
    c4e2:	1e 53       	inc	r14		
    c4e4:	0d 4e       	mov	r14,	r13	
    c4e6:	0d 5d       	rla	r13		
    c4e8:	0e 5d       	add	r13,	r14	
    c4ea:	0e 5e       	rla	r14		
    c4ec:	0e 5b       	add	r11,	r14	
    c4ee:	0f 41       	mov	r1,	r15	
    c4f0:	ae 12       	call	@r14		
    c4f2:	0c 3c       	jmp	$+26     	;abs 0xc50c
    c4f4:	1a 53       	inc	r10		
    c4f6:	6f 4b       	mov.b	@r11,	r15	
    c4f8:	0a 9f       	cmp	r15,	r10	
    c4fa:	d6 3b       	jl	$-82     	;abs 0xc4a8
    c4fc:	3f 40 f2 ff 	mov	#-14,	r15	;#0xfff2
    c500:	05 3c       	jmp	$+12     	;abs 0xc50c
    c502:	3f 40 f0 ff 	mov	#-16,	r15	;#0xfff0
    c506:	02 3c       	jmp	$+6      	;abs 0xc50c
    c508:	3f 40 f1 ff 	mov	#-15,	r15	;#0xfff1
    c50c:	31 50 52 00 	add	#82,	r1	;#0x0052
    c510:	36 41       	pop	r6		
    c512:	37 41       	pop	r7		
    c514:	38 41       	pop	r8		
    c516:	39 41       	pop	r9		
    c518:	3a 41       	pop	r10		
    c51a:	3b 41       	pop	r11		
    c51c:	30 41       	ret			

0000c51e <_xtoa>:
    c51e:	0b 12       	push	r11		
    c520:	0a 12       	push	r10		
    c522:	09 12       	push	r9		
    c524:	08 12       	push	r8		
    c526:	07 12       	push	r7		
    c528:	0a 4e       	mov	r14,	r10	
    c52a:	0b 4f       	mov	r15,	r11	
    c52c:	07 4d       	mov	r13,	r7	
    c52e:	0e 93       	tst	r14		
    c530:	04 20       	jnz	$+10     	;abs 0xc53a
    c532:	0b 93       	tst	r11		
    c534:	1f 24       	jz	$+64     	;abs 0xc574
    c536:	01 3c       	jmp	$+4      	;abs 0xc53a
    c538:	27 52       	add	#4,	r7	;r2 As==10
    c53a:	1b 97 02 00 	cmp	2(r7),	r11	;0x0002(r7)
    c53e:	fc 2b       	jnc	$-6      	;abs 0xc538
    c540:	02 20       	jnz	$+6      	;abs 0xc546
    c542:	2a 97       	cmp	@r7,	r10	
    c544:	f9 2b       	jnc	$-12     	;abs 0xc538
    c546:	38 47       	mov	@r7+,	r8	
    c548:	39 47       	mov	@r7+,	r9	
    c54a:	7f 40 30 00 	mov.b	#48,	r15	;#0x0030
    c54e:	03 3c       	jmp	$+8      	;abs 0xc556
    c550:	5f 53       	inc.b	r15		
    c552:	0a 88       	sub	r8,	r10	
    c554:	0b 79       	subc	r9,	r11	
    c556:	0b 99       	cmp	r9,	r11	
    c558:	04 28       	jnc	$+10     	;abs 0xc562
    c55a:	09 9b       	cmp	r11,	r9	
    c55c:	f9 2b       	jnc	$-12     	;abs 0xc550
    c55e:	0a 98       	cmp	r8,	r10	
    c560:	f7 2f       	jc	$-16     	;abs 0xc550
    c562:	b0 12 88 c7 	call	#0xc788	
    c566:	18 f3       	and	#1,	r8	;r3 As==01
    c568:	09 f3       	and	#0,	r9	;r3 As==00
    c56a:	08 93       	tst	r8		
    c56c:	07 20       	jnz	$+16     	;abs 0xc57c
    c56e:	09 93       	tst	r9		
    c570:	ea 27       	jz	$-42     	;abs 0xc546
    c572:	04 3c       	jmp	$+10     	;abs 0xc57c
    c574:	7f 40 30 00 	mov.b	#48,	r15	;#0x0030
    c578:	b0 12 88 c7 	call	#0xc788	
    c57c:	37 41       	pop	r7		
    c57e:	38 41       	pop	r8		
    c580:	39 41       	pop	r9		
    c582:	3a 41       	pop	r10		
    c584:	3b 41       	pop	r11		
    c586:	30 41       	ret			

0000c588 <_puth>:
    c588:	3f f0 0f 00 	and	#15,	r15	;#0x000f
    c58c:	5f 4f ea ca 	mov.b	-13590(r15),r15	;0xcaea(r15)
    c590:	b0 12 88 c7 	call	#0xc788	
    c594:	30 41       	ret			

0000c596 <cio_print>:
    c596:	0b 12       	push	r11		
    c598:	0b 4f       	mov	r15,	r11	
    c59a:	02 3c       	jmp	$+6      	;abs 0xc5a0
    c59c:	b0 12 88 c7 	call	#0xc788	
    c5a0:	7f 4b       	mov.b	@r11+,	r15	
    c5a2:	4f 93       	tst.b	r15		
    c5a4:	fb 23       	jnz	$-8      	;abs 0xc59c
    c5a6:	3b 41       	pop	r11		
    c5a8:	30 41       	ret			

0000c5aa <cio_printi>:
    c5aa:	0b 12       	push	r11		
    c5ac:	0a 12       	push	r10		
    c5ae:	09 12       	push	r9		
    c5b0:	31 50 e0 ff 	add	#-32,	r1	;#0xffe0
    c5b4:	0b 4f       	mov	r15,	r11	
    c5b6:	0f 93       	tst	r15		
    c5b8:	06 24       	jz	$+14     	;abs 0xc5c6
    c5ba:	09 41       	mov	r1,	r9	
    c5bc:	39 50 1e 00 	add	#30,	r9	;#0x001e
    c5c0:	3a 40 0f 00 	mov	#15,	r10	;#0x000f
    c5c4:	18 3c       	jmp	$+50     	;abs 0xc5f6
    c5c6:	7f 40 30 00 	mov.b	#48,	r15	;#0x0030
    c5ca:	b0 12 88 c7 	call	#0xc788	
    c5ce:	24 3c       	jmp	$+74     	;abs 0xc618
    c5d0:	3e 40 0a 00 	mov	#10,	r14	;#0x000a
    c5d4:	0f 4b       	mov	r11,	r15	
    c5d6:	b0 12 28 c9 	call	#0xc928	
    c5da:	3f 50 30 00 	add	#48,	r15	;#0x0030
    c5de:	89 4f 00 00 	mov	r15,	0(r9)	;0x0000(r9)
    c5e2:	3e 40 0a 00 	mov	#10,	r14	;#0x000a
    c5e6:	0f 4b       	mov	r11,	r15	
    c5e8:	b0 12 f6 c8 	call	#0xc8f6	
    c5ec:	0b 4f       	mov	r15,	r11	
    c5ee:	3a 53       	add	#-1,	r10	;r3 As==11
    c5f0:	29 83       	decd	r9		
    c5f2:	0a 93       	tst	r10		
    c5f4:	02 24       	jz	$+6      	;abs 0xc5fa
    c5f6:	1b 93       	cmp	#1,	r11	;r3 As==01
    c5f8:	eb 37       	jge	$-40     	;abs 0xc5d0
    c5fa:	09 4a       	mov	r10,	r9	
    c5fc:	0b 43       	clr	r11		
    c5fe:	07 3c       	jmp	$+16     	;abs 0xc60e
    c600:	0f 4a       	mov	r10,	r15	
    c602:	0f 5f       	rla	r15		
    c604:	0f 51       	add	r1,	r15	
    c606:	0f 5b       	add	r11,	r15	
    c608:	6f 4f       	mov.b	@r15,	r15	
    c60a:	b0 12 88 c7 	call	#0xc788	
    c60e:	19 53       	inc	r9		
    c610:	2b 53       	incd	r11		
    c612:	39 90 10 00 	cmp	#16,	r9	;#0x0010
    c616:	f4 23       	jnz	$-22     	;abs 0xc600
    c618:	31 50 20 00 	add	#32,	r1	;#0x0020
    c61c:	39 41       	pop	r9		
    c61e:	3a 41       	pop	r10		
    c620:	3b 41       	pop	r11		
    c622:	30 41       	ret			

0000c624 <cio_printb>:
    c624:	0b 12       	push	r11		
    c626:	0a 12       	push	r10		
    c628:	0a 4f       	mov	r15,	r10	
    c62a:	0b 4e       	mov	r14,	r11	
    c62c:	12 3c       	jmp	$+38     	;abs 0xc652
    c62e:	0d 4a       	mov	r10,	r13	
    c630:	4e 4b       	mov.b	r11,	r14	
    c632:	7e f0 0f 00 	and.b	#15,	r14	;#0x000f
    c636:	4e 93       	tst.b	r14		
    c638:	03 24       	jz	$+8      	;abs 0xc640
    c63a:	0d 11       	rra	r13		
    c63c:	7e 53       	add.b	#-1,	r14	;r3 As==11
    c63e:	fb 3f       	jmp	$-8      	;abs 0xc636
    c640:	1d f3       	and	#1,	r13	;r3 As==01
    c642:	03 24       	jz	$+8      	;abs 0xc64a
    c644:	7f 40 31 00 	mov.b	#49,	r15	;#0x0031
    c648:	02 3c       	jmp	$+6      	;abs 0xc64e
    c64a:	7f 40 30 00 	mov.b	#48,	r15	;#0x0030
    c64e:	b0 12 88 c7 	call	#0xc788	
    c652:	3b 53       	add	#-1,	r11	;r3 As==11
    c654:	0b 93       	tst	r11		
    c656:	eb 37       	jge	$-40     	;abs 0xc62e
    c658:	3a 41       	pop	r10		
    c65a:	3b 41       	pop	r11		
    c65c:	30 41       	ret			

0000c65e <cio_printf>:
    c65e:	0b 12       	push	r11		
    c660:	0a 12       	push	r10		
    c662:	09 12       	push	r9		
    c664:	08 12       	push	r8		
    c666:	0b 41       	mov	r1,	r11	
    c668:	3b 50 0a 00 	add	#10,	r11	;#0x000a
    c66c:	3a 4b       	mov	@r11+,	r10	
    c66e:	84 3c       	jmp	$+266    	;abs 0xc778
    c670:	7f 90 25 00 	cmp.b	#37,	r15	;#0x0025
    c674:	7e 20       	jnz	$+254    	;abs 0xc772
    c676:	5f 4a 01 00 	mov.b	1(r10),	r15	;0x0001(r10)
    c67a:	2a 53       	incd	r10		
    c67c:	7f 90 6e 00 	cmp.b	#110,	r15	;#0x006e
    c680:	3e 24       	jz	$+126    	;abs 0xc6fe
    c682:	7f 90 6f 00 	cmp.b	#111,	r15	;#0x006f
    c686:	10 34       	jge	$+34     	;abs 0xc6a8
    c688:	7f 90 69 00 	cmp.b	#105,	r15	;#0x0069
    c68c:	23 24       	jz	$+72     	;abs 0xc6d4
    c68e:	7f 90 6a 00 	cmp.b	#106,	r15	;#0x006a
    c692:	06 34       	jge	$+14     	;abs 0xc6a0
    c694:	4f 93       	tst.b	r15		
    c696:	73 24       	jz	$+232    	;abs 0xc77e
    c698:	7f 90 63 00 	cmp.b	#99,	r15	;#0x0063
    c69c:	6b 20       	jnz	$+216    	;abs 0xc774
    c69e:	13 3c       	jmp	$+40     	;abs 0xc6c6
    c6a0:	7f 90 6c 00 	cmp.b	#108,	r15	;#0x006c
    c6a4:	67 20       	jnz	$+208    	;abs 0xc774
    c6a6:	2b 3c       	jmp	$+88     	;abs 0xc6fe
    c6a8:	7f 90 75 00 	cmp.b	#117,	r15	;#0x0075
    c6ac:	13 24       	jz	$+40     	;abs 0xc6d4
    c6ae:	7f 90 78 00 	cmp.b	#120,	r15	;#0x0078
    c6b2:	43 24       	jz	$+136    	;abs 0xc73a
    c6b4:	7f 90 73 00 	cmp.b	#115,	r15	;#0x0073
    c6b8:	5d 20       	jnz	$+188    	;abs 0xc774
    c6ba:	09 4b       	mov	r11,	r9	
    c6bc:	29 53       	incd	r9		
    c6be:	2f 4b       	mov	@r11,	r15	
    c6c0:	b0 12 96 c5 	call	#0xc596	
    c6c4:	05 3c       	jmp	$+12     	;abs 0xc6d0
    c6c6:	09 4b       	mov	r11,	r9	
    c6c8:	29 53       	incd	r9		
    c6ca:	6f 4b       	mov.b	@r11,	r15	
    c6cc:	b0 12 88 c7 	call	#0xc788	
    c6d0:	0b 49       	mov	r9,	r11	
    c6d2:	52 3c       	jmp	$+166    	;abs 0xc778
    c6d4:	09 4b       	mov	r11,	r9	
    c6d6:	29 53       	incd	r9		
    c6d8:	2b 4b       	mov	@r11,	r11	
    c6da:	7f 90 69 00 	cmp.b	#105,	r15	;#0x0069
    c6de:	08 20       	jnz	$+18     	;abs 0xc6f0
    c6e0:	0b 93       	tst	r11		
    c6e2:	06 34       	jge	$+14     	;abs 0xc6f0
    c6e4:	3b e3       	inv	r11		
    c6e6:	1b 53       	inc	r11		
    c6e8:	7f 40 2d 00 	mov.b	#45,	r15	;#0x002d
    c6ec:	b0 12 88 c7 	call	#0xc788	
    c6f0:	3d 40 d6 ca 	mov	#-13610,r13	;#0xcad6
    c6f4:	0e 4b       	mov	r11,	r14	
    c6f6:	0f 43       	clr	r15		
    c6f8:	b0 12 1e c5 	call	#0xc51e	
    c6fc:	e9 3f       	jmp	$-44     	;abs 0xc6d0
    c6fe:	08 4b       	mov	r11,	r8	
    c700:	28 52       	add	#4,	r8	;r2 As==10
    c702:	29 4b       	mov	@r11,	r9	
    c704:	1b 4b 02 00 	mov	2(r11),	r11	;0x0002(r11)
    c708:	7f 90 6c 00 	cmp.b	#108,	r15	;#0x006c
    c70c:	0e 20       	jnz	$+30     	;abs 0xc72a
    c70e:	0b 93       	tst	r11		
    c710:	0c 34       	jge	$+26     	;abs 0xc72a
    c712:	0c 49       	mov	r9,	r12	
    c714:	0d 4b       	mov	r11,	r13	
    c716:	3c e3       	inv	r12		
    c718:	3d e3       	inv	r13		
    c71a:	1c 53       	inc	r12		
    c71c:	0d 63       	adc	r13		
    c71e:	09 4c       	mov	r12,	r9	
    c720:	0b 4d       	mov	r13,	r11	
    c722:	7f 40 2d 00 	mov.b	#45,	r15	;#0x002d
    c726:	b0 12 88 c7 	call	#0xc788	
    c72a:	3d 40 c2 ca 	mov	#-13630,r13	;#0xcac2
    c72e:	0e 49       	mov	r9,	r14	
    c730:	0f 4b       	mov	r11,	r15	
    c732:	b0 12 1e c5 	call	#0xc51e	
    c736:	0b 48       	mov	r8,	r11	
    c738:	1f 3c       	jmp	$+64     	;abs 0xc778
    c73a:	09 4b       	mov	r11,	r9	
    c73c:	29 53       	incd	r9		
    c73e:	2b 4b       	mov	@r11,	r11	
    c740:	0f 4b       	mov	r11,	r15	
    c742:	8f 10       	swpb	r15		
    c744:	8f 11       	sxt	r15		
    c746:	0f 11       	rra	r15		
    c748:	0f 11       	rra	r15		
    c74a:	0f 11       	rra	r15		
    c74c:	0f 11       	rra	r15		
    c74e:	b0 12 88 c5 	call	#0xc588	
    c752:	0f 4b       	mov	r11,	r15	
    c754:	8f 10       	swpb	r15		
    c756:	8f 11       	sxt	r15		
    c758:	b0 12 88 c5 	call	#0xc588	
    c75c:	0f 4b       	mov	r11,	r15	
    c75e:	0f 11       	rra	r15		
    c760:	0f 11       	rra	r15		
    c762:	0f 11       	rra	r15		
    c764:	0f 11       	rra	r15		
    c766:	b0 12 88 c5 	call	#0xc588	
    c76a:	0f 4b       	mov	r11,	r15	
    c76c:	b0 12 88 c5 	call	#0xc588	
    c770:	af 3f       	jmp	$-160    	;abs 0xc6d0
    c772:	1a 53       	inc	r10		
    c774:	b0 12 88 c7 	call	#0xc788	
    c778:	6f 4a       	mov.b	@r10,	r15	
    c77a:	4f 93       	tst.b	r15		
    c77c:	79 23       	jnz	$-268    	;abs 0xc670
    c77e:	38 41       	pop	r8		
    c780:	39 41       	pop	r9		
    c782:	3a 41       	pop	r10		
    c784:	3b 41       	pop	r11		
    c786:	30 41       	ret			

0000c788 <cio_printc>:
    c788:	b0 12 d4 c8 	call	#0xc8d4	
    c78c:	30 41       	ret			

0000c78e <cio_getc>:
    c78e:	b0 12 e8 c8 	call	#0xc8e8	
    c792:	30 41       	ret			

0000c794 <serial_clk_init>:
    c794:	f2 d0 06 00 	bis.b	#6,	&0x0026	;#0x0006
    c798:	26 00 
    c79a:	f2 d0 06 00 	bis.b	#6,	&0x0041	;#0x0006
    c79e:	41 00 
    c7a0:	f2 d0 80 ff 	bis.b	#-128,	&0x0061	;#0xff80
    c7a4:	61 00 
    c7a6:	3e 90 00 12 	cmp	#4608,	r14	;#0x1200
    c7aa:	04 20       	jnz	$+10     	;abs 0xc7b4
    c7ac:	3f 90 7a 00 	cmp	#122,	r15	;#0x007a
    c7b0:	67 20       	jnz	$+208    	;abs 0xc880
    c7b2:	07 3c       	jmp	$+16     	;abs 0xc7c2
    c7b4:	3e 90 00 24 	cmp	#9216,	r14	;#0x2400
    c7b8:	63 20       	jnz	$+200    	;abs 0xc880
    c7ba:	3f 90 f4 00 	cmp	#244,	r15	;#0x00f4
    c7be:	60 20       	jnz	$+194    	;abs 0xc880
    c7c0:	2a 3c       	jmp	$+86     	;abs 0xc816
    c7c2:	3d 90 00 84 	cmp	#-31744,r13	;#0x8400
    c7c6:	21 24       	jz	$+68     	;abs 0xc80a
    c7c8:	3d 90 01 84 	cmp	#-31743,r13	;#0x8401
    c7cc:	07 2c       	jc	$+16     	;abs 0xc7dc
    c7ce:	3d 90 80 25 	cmp	#9600,	r13	;#0x2580
    c7d2:	38 24       	jz	$+114    	;abs 0xc844
    c7d4:	3d 90 00 4b 	cmp	#19200,	r13	;#0x4b00
    c7d8:	35 20       	jnz	$+108    	;abs 0xc844
    c7da:	0a 3c       	jmp	$+22     	;abs 0xc7f0
    c7dc:	3d 90 00 c2 	cmp	#-15872,r13	;#0xc200
    c7e0:	42 24       	jz	$+134    	;abs 0xc866
    c7e2:	3d 90 00 e1 	cmp	#-7936,	r13	;#0xe100
    c7e6:	39 24       	jz	$+116    	;abs 0xc85a
    c7e8:	3d 90 00 96 	cmp	#-27136,r13	;#0x9600
    c7ec:	2b 20       	jnz	$+88     	;abs 0xc844
    c7ee:	07 3c       	jmp	$+16     	;abs 0xc7fe
    c7f0:	f2 40 1a 00 	mov.b	#26,	&0x0062	;#0x001a
    c7f4:	62 00 
    c7f6:	f2 40 11 00 	mov.b	#17,	&0x0064	;#0x0011
    c7fa:	64 00 
    c7fc:	5a 3c       	jmp	$+182    	;abs 0xc8b2
    c7fe:	f2 40 0d 00 	mov.b	#13,	&0x0062	;#0x000d
    c802:	62 00 
    c804:	d2 43 64 00 	mov.b	#1,	&0x0064	;r3 As==01
    c808:	54 3c       	jmp	$+170    	;abs 0xc8b2
    c80a:	e2 43 62 00 	mov.b	#2,	&0x0062	;r3 As==10
    c80e:	f2 40 27 00 	mov.b	#39,	&0x0064	;#0x0027
    c812:	64 00 
    c814:	4e 3c       	jmp	$+158    	;abs 0xc8b2
    c816:	3d 90 00 84 	cmp	#-31744,r13	;#0x8400
    c81a:	25 24       	jz	$+76     	;abs 0xc866
    c81c:	3d 90 01 84 	cmp	#-31743,r13	;#0x8401
    c820:	07 2c       	jc	$+16     	;abs 0xc830
    c822:	3d 90 80 25 	cmp	#9600,	r13	;#0x2580
    c826:	25 24       	jz	$+76     	;abs 0xc872
    c828:	3d 90 00 4b 	cmp	#19200,	r13	;#0x4b00
    c82c:	22 20       	jnz	$+70     	;abs 0xc872
    c82e:	0a 3c       	jmp	$+22     	;abs 0xc844
    c830:	3d 90 00 c2 	cmp	#-15872,r13	;#0xc200
    c834:	12 24       	jz	$+38     	;abs 0xc85a
    c836:	3d 90 00 e1 	cmp	#-7936,	r13	;#0xe100
    c83a:	08 24       	jz	$+18     	;abs 0xc84c
    c83c:	3d 90 00 96 	cmp	#-27136,r13	;#0x9600
    c840:	18 20       	jnz	$+50     	;abs 0xc872
    c842:	d6 3f       	jmp	$-82     	;abs 0xc7f0
    c844:	f2 40 34 00 	mov.b	#52,	&0x0062	;#0x0034
    c848:	62 00 
    c84a:	d5 3f       	jmp	$-84     	;abs 0xc7f6
    c84c:	f2 40 11 00 	mov.b	#17,	&0x0062	;#0x0011
    c850:	62 00 
    c852:	f2 40 61 00 	mov.b	#97,	&0x0064	;#0x0061
    c856:	64 00 
    c858:	2c 3c       	jmp	$+90     	;abs 0xc8b2
    c85a:	f2 42 62 00 	mov.b	#8,	&0x0062	;r2 As==11
    c85e:	f2 40 b1 ff 	mov.b	#-79,	&0x0064	;#0xffb1
    c862:	64 00 
    c864:	26 3c       	jmp	$+78     	;abs 0xc8b2
    c866:	e2 42 62 00 	mov.b	#4,	&0x0062	;r2 As==10
    c86a:	f2 40 3b 00 	mov.b	#59,	&0x0064	;#0x003b
    c86e:	64 00 
    c870:	20 3c       	jmp	$+66     	;abs 0xc8b2
    c872:	f2 40 68 00 	mov.b	#104,	&0x0062	;#0x0068
    c876:	62 00 
    c878:	f2 40 31 00 	mov.b	#49,	&0x0064	;#0x0031
    c87c:	64 00 
    c87e:	19 3c       	jmp	$+52     	;abs 0xc8b2
    c880:	3d 90 00 4b 	cmp	#19200,	r13	;#0x4b00
    c884:	0a 24       	jz	$+22     	;abs 0xc89a
    c886:	3d 90 00 e1 	cmp	#-7936,	r13	;#0xe100
    c88a:	0e 24       	jz	$+30     	;abs 0xc8a8
    c88c:	f2 40 06 00 	mov.b	#6,	&0x0062	;#0x0006
    c890:	62 00 
    c892:	f2 40 81 ff 	mov.b	#-127,	&0x0064	;#0xff81
    c896:	64 00 
    c898:	0c 3c       	jmp	$+26     	;abs 0xc8b2
    c89a:	f2 40 03 00 	mov.b	#3,	&0x0062	;#0x0003
    c89e:	62 00 
    c8a0:	f2 40 41 00 	mov.b	#65,	&0x0064	;#0x0041
    c8a4:	64 00 
    c8a6:	05 3c       	jmp	$+12     	;abs 0xc8b2
    c8a8:	d2 43 62 00 	mov.b	#1,	&0x0062	;r3 As==01
    c8ac:	f2 40 0f 00 	mov.b	#15,	&0x0064	;#0x000f
    c8b0:	64 00 
    c8b2:	c2 43 63 00 	mov.b	#0,	&0x0063	;r3 As==00
    c8b6:	f2 f0 fe ff 	and.b	#-2,	&0x0061	;#0xfffe
    c8ba:	61 00 
    c8bc:	30 41       	ret			

0000c8be <serial_init>:
    c8be:	0d 4f       	mov	r15,	r13	
    c8c0:	3e 40 40 42 	mov	#16960,	r14	;#0x4240
    c8c4:	3f 40 0f 00 	mov	#15,	r15	;#0x000f
    c8c8:	b0 12 94 c7 	call	#0xc794	
    c8cc:	30 41       	ret			

0000c8ce <serial_send>:
    c8ce:	c2 4f 67 00 	mov.b	r15,	&0x0067	
    c8d2:	30 41       	ret			

0000c8d4 <serial_send_blocking>:
    c8d4:	5e 42 03 00 	mov.b	&0x0003,r14	
    c8d8:	2e f3       	and	#2,	r14	;r3 As==10
    c8da:	fc 27       	jz	$-6      	;abs 0xc8d4
    c8dc:	c2 4f 67 00 	mov.b	r15,	&0x0067	
    c8e0:	30 41       	ret			

0000c8e2 <serial_recv>:
    c8e2:	5f 42 66 00 	mov.b	&0x0066,r15	
    c8e6:	30 41       	ret			

0000c8e8 <serial_recv_blocking>:
    c8e8:	5f 42 03 00 	mov.b	&0x0003,r15	
    c8ec:	1f f3       	and	#1,	r15	;r3 As==01
    c8ee:	fc 27       	jz	$-6      	;abs 0xc8e8
    c8f0:	5f 42 66 00 	mov.b	&0x0066,r15	
    c8f4:	30 41       	ret			

0000c8f6 <__divhi3>:
    c8f6:	0d 43       	clr	r13		
    c8f8:	0f 93       	tst	r15		
    c8fa:	04 34       	jge	$+10     	;abs 0xc904
    c8fc:	3d 40 03 00 	mov	#3,	r13	;#0x0003
    c900:	3f e3       	inv	r15		
    c902:	1f 53       	inc	r15		
    c904:	0e 93       	tst	r14		
    c906:	03 34       	jge	$+8      	;abs 0xc90e
    c908:	5d e3       	xor.b	#1,	r13	;r3 As==01
    c90a:	3e e3       	inv	r14		
    c90c:	1e 53       	inc	r14		
    c90e:	0d 12       	push	r13		
    c910:	b0 12 30 c9 	call	#0xc930	
    c914:	3d 41       	pop	r13		
    c916:	6d b3       	bit.b	#2,	r13	;r3 As==10
    c918:	02 24       	jz	$+6      	;abs 0xc91e
    c91a:	3e e3       	inv	r14		
    c91c:	1e 53       	inc	r14		
    c91e:	5d b3       	bit.b	#1,	r13	;r3 As==01
    c920:	02 24       	jz	$+6      	;abs 0xc926
    c922:	3f e3       	inv	r15		
    c924:	1f 53       	inc	r15		
    c926:	30 41       	ret			

0000c928 <__modhi3>:
    c928:	b0 12 f6 c8 	call	#0xc8f6	
    c92c:	0f 4e       	mov	r14,	r15	
    c92e:	30 41       	ret			

0000c930 <__udivhi3>:
    c930:	7c 40 10 00 	mov.b	#16,	r12	;#0x0010
    c934:	0d 4e       	mov	r14,	r13	
    c936:	0e 43       	clr	r14		
    c938:	0f 5f       	rla	r15		
    c93a:	0e 6e       	rlc	r14		
    c93c:	0e 9d       	cmp	r13,	r14	
    c93e:	02 28       	jnc	$+6      	;abs 0xc944
    c940:	0e 8d       	sub	r13,	r14	
    c942:	1f d3       	bis	#1,	r15	;r3 As==01
    c944:	1c 83       	dec	r12		
    c946:	f8 23       	jnz	$-14     	;abs 0xc938
    c948:	30 41       	ret			

0000c94a <__umodhi3>:
    c94a:	b0 12 30 c9 	call	#0xc930	
    c94e:	0f 4e       	mov	r14,	r15	
    c950:	30 41       	ret			

0000c952 <memset>:
    c952:	0b 12       	push	r11		
    c954:	0a 12       	push	r10		
    c956:	09 12       	push	r9		
    c958:	08 12       	push	r8		
    c95a:	3d 90 06 00 	cmp	#6,	r13	;#0x0006
    c95e:	09 2c       	jc	$+20     	;abs 0xc972
    c960:	0c 4f       	mov	r15,	r12	
    c962:	04 3c       	jmp	$+10     	;abs 0xc96c
    c964:	cc 4e 00 00 	mov.b	r14,	0(r12)	;0x0000(r12)
    c968:	1c 53       	inc	r12		
    c96a:	3d 53       	add	#-1,	r13	;r3 As==11
    c96c:	0d 93       	tst	r13		
    c96e:	fa 23       	jnz	$-10     	;abs 0xc964
    c970:	20 3c       	jmp	$+66     	;abs 0xc9b2
    c972:	4e 4e       	mov.b	r14,	r14	
    c974:	4b 4e       	mov.b	r14,	r11	
    c976:	0b 93       	tst	r11		
    c978:	03 24       	jz	$+8      	;abs 0xc980
    c97a:	0c 4b       	mov	r11,	r12	
    c97c:	8c 10       	swpb	r12		
    c97e:	0b dc       	bis	r12,	r11	
    c980:	1f b3       	bit	#1,	r15	;r3 As==01
    c982:	06 24       	jz	$+14     	;abs 0xc990
    c984:	3d 53       	add	#-1,	r13	;r3 As==11
    c986:	cf 4e 00 00 	mov.b	r14,	0(r15)	;0x0000(r15)
    c98a:	09 4f       	mov	r15,	r9	
    c98c:	19 53       	inc	r9		
    c98e:	01 3c       	jmp	$+4      	;abs 0xc992
    c990:	09 4f       	mov	r15,	r9	
    c992:	0c 4d       	mov	r13,	r12	
    c994:	12 c3       	clrc			
    c996:	0c 10       	rrc	r12		
    c998:	0a 49       	mov	r9,	r10	
    c99a:	08 4c       	mov	r12,	r8	
    c99c:	8a 4b 00 00 	mov	r11,	0(r10)	;0x0000(r10)
    c9a0:	2a 53       	incd	r10		
    c9a2:	38 53       	add	#-1,	r8	;r3 As==11
    c9a4:	fb 23       	jnz	$-8      	;abs 0xc99c
    c9a6:	0c 5c       	rla	r12		
    c9a8:	0c 59       	add	r9,	r12	
    c9aa:	1d f3       	and	#1,	r13	;r3 As==01
    c9ac:	02 24       	jz	$+6      	;abs 0xc9b2
    c9ae:	cc 4e 00 00 	mov.b	r14,	0(r12)	;0x0000(r12)
    c9b2:	38 41       	pop	r8		
    c9b4:	39 41       	pop	r9		
    c9b6:	3a 41       	pop	r10		
    c9b8:	3b 41       	pop	r11		
    c9ba:	30 41       	ret			

0000c9bc <_unexpected_>:
    c9bc:	00 13       	reti			

Disassembly of section .rodata:

0000c9be <_dv-0x104>:
    c9be:	68 65       	addc.b	@r5,	r8	
    c9c0:	6c 70       	subc.b	@r0,	r12	
    c9c2:	00 6c       	addc	r12,	r0	
    c9c4:	69 73       	subc.b	#2,	r9	;r3 As==10
    c9c6:	74 20       	jnz	$+234    	;abs 0xcab0
    c9c8:	61 76       	subc.b	@r6,	r1	
    c9ca:	61 69       	addc.b	@r9,	r1	
    c9cc:	6c 61       	addc.b	@r1,	r12	
    c9ce:	62 6c       	addc.b	@r12,	r2	
    c9d0:	65 20       	jnz	$+204    	;abs 0xca9c
    c9d2:	63 6f       	.word	0x6f63;	????	Illegal as 2-op instr
    c9d4:	6d 6d       	addc.b	@r13,	r13	
    c9d6:	61 6e       	addc.b	@r14,	r1	
    c9d8:	64 73       	subc.b	#2,	r4	;r3 As==10
    c9da:	00 61       	addc	r1,	r0	
    c9dc:	72 67       	addc.b	@r7+,	r2	
    c9de:	73 00       	.word	0x0073;	????	
    c9e0:	70 72       	subc.b	#8,	r0	;r2 As==11
    c9e2:	69 6e       	addc.b	@r14,	r9	
    c9e4:	74 20       	jnz	$+234    	;abs 0xcace
    c9e6:	62 61       	addc.b	@r1,	r2	
    c9e8:	63 6b       	.word	0x6b63;	????	Illegal as 2-op instr
    c9ea:	20 67       	addc	@r7,	r0	
    c9ec:	69 76       	subc.b	@r6,	r9	
    c9ee:	65 6e       	addc.b	@r14,	r5	
    c9f0:	20 61       	addc	@r1,	r0	
    c9f2:	72 67       	addc.b	@r7+,	r2	
    c9f4:	75 6d       	addc.b	@r13+,	r5	
    c9f6:	65 6e       	addc.b	@r14,	r5	
    c9f8:	74 73       	subc.b	#-1,	r4	;r3 As==11
    c9fa:	00 68       	addc	r8,	r0	
    c9fc:	65 78       	subc.b	@r8,	r5	
    c9fe:	64 00       	.word	0x0064;	????	
    ca00:	64 69       	addc.b	@r9,	r4	
    ca02:	73 70       	.word	0x7073;	????	Illegal as 2-op instr
    ca04:	6c 61       	addc.b	@r1,	r12	
    ca06:	79 20       	jnz	$+244    	;abs 0xcafa
    ca08:	74 77       	subc.b	@r7+,	r4	
    ca0a:	6f 20       	jnz	$+224    	;abs 0xcaea
    ca0c:	63 68       	.word	0x6863;	????	Illegal as 2-op instr
    ca0e:	61 72       	subc.b	#4,	r1	;r2 As==10
    ca10:	61 63       	addc.b	#2,	r1	;r3 As==10
    ca12:	74 65       	addc.b	@r5+,	r4	
    ca14:	72 73       	subc.b	#-1,	r2	;r3 As==11
    ca16:	20 61       	addc	@r1,	r0	
    ca18:	73 20       	jnz	$+232    	;abs 0xcb00
    ca1a:	68 65       	addc.b	@r5,	r8	
    ca1c:	78 20       	jnz	$+242    	;abs 0xcb0e
    ca1e:	62 79       	subc.b	@r9,	r2	
    ca20:	74 65       	addc.b	@r5+,	r4	
    ca22:	73 20       	jnz	$+232    	;abs 0xcb0a
    ca24:	6f 6e       	addc.b	@r14,	r15	
    ca26:	20 74       	subc	@r4,	r0	
    ca28:	68 65       	addc.b	@r5,	r8	
    ca2a:	20 64       	addc	@r4,	r0	
    ca2c:	69 73       	subc.b	#2,	r9	;r3 As==10
    ca2e:	70 6c       	addc.b	@r12+,	r0	
    ca30:	61 79       	subc.b	@r9,	r1	
    ca32:	00 25       	jz	$+514    	;abs 0xcc34
    ca34:	73 3a       	jl	$-792    	;abs 0xc71c
    ca36:	20 25       	jz	$+578    	;abs 0xcc78
    ca38:	73 0a       	.word	0x0a73;	????	
    ca3a:	0d 00       	.word	0x000d;	????	
    ca3c:	61 72       	subc.b	#4,	r1	;r2 As==10
    ca3e:	67 73       	subc.b	#2,	r7	;r3 As==10
    ca40:	20 67       	addc	@r7,	r0	
    ca42:	69 76       	subc.b	@r6,	r9	
    ca44:	65 6e       	addc.b	@r14,	r5	
    ca46:	3a 0a       	.word	0x0a3a;	????	
    ca48:	0d 00       	.word	0x000d;	????	
    ca4a:	20 2d       	jc	$+578    	;abs 0xcc8c
    ca4c:	20 25       	jz	$+578    	;abs 0xcc8e
    ca4e:	73 0a       	.word	0x0a73;	????	
    ca50:	0d 00       	.word	0x000d;	????	
    ca52:	24 20       	jnz	$+74     	;abs 0xca9c
    ca54:	00 0a       	.word	0x0a00;	????	
    ca56:	0a 0d       	.word	0x0d0a;	????	
    ca58:	00 45       	br	r5		
    ca5a:	52 52 4f 52 	add.b	&0x524f,r2	
    ca5e:	2c 20       	jnz	$+90     	;abs 0xcab8
    ca60:	75 6e       	addc.b	@r14+,	r5	
    ca62:	6b 6e       	addc.b	@r14,	r11	
    ca64:	6f 77       	subc.b	@r7,	r15	
    ca66:	6e 20       	jnz	$+222    	;abs 0xcb44
    ca68:	63 6f       	.word	0x6f63;	????	Illegal as 2-op instr
    ca6a:	6d 6d       	addc.b	@r13,	r13	
    ca6c:	61 6e       	addc.b	@r14,	r1	
    ca6e:	64 20       	jnz	$+202    	;abs 0xcb38
    ca70:	67 69       	addc.b	@r9,	r7	
    ca72:	76 65       	addc.b	@r5+,	r6	
    ca74:	6e 0a       	.word	0x0a6e;	????	
    ca76:	0d 00       	.word	0x000d;	????	
    ca78:	45 52       	add.b	r2,	r5	
    ca7a:	52 4f 52 2c 	mov.b	11346(r15),r2	;0x2c52(r15)
    ca7e:	20 61       	addc	@r1,	r0	
    ca80:	6e 20       	jnz	$+222    	;abs 0xcb5e
    ca82:	61 72       	subc.b	#4,	r1	;r2 As==10
    ca84:	67 75       	subc.b	@r5,	r7	
    ca86:	65 6d       	addc.b	@r13,	r5	
    ca88:	65 6e       	addc.b	@r14,	r5	
    ca8a:	74 20       	jnz	$+234    	;abs 0xcb74
    ca8c:	69 73       	subc.b	#2,	r9	;r3 As==10
    ca8e:	20 74       	subc	@r4,	r0	
    ca90:	6f 6f       	addc.b	@r15,	r15	
    ca92:	20 6c       	addc	@r12,	r0	
    ca94:	65 6e       	addc.b	@r14,	r5	
    ca96:	67 74       	subc.b	@r4,	r7	
    ca98:	68 79       	subc.b	@r9,	r8	
    ca9a:	0a 0d       	.word	0x0d0a;	????	
    ca9c:	00 45       	br	r5		
    ca9e:	52 52 4f 52 	add.b	&0x524f,r2	
    caa2:	2c 20       	jnz	$+90     	;abs 0xcafc
    caa4:	74 6f       	addc.b	@r15+,	r4	
    caa6:	6f 20       	jnz	$+224    	;abs 0xcb86
    caa8:	6d 61       	addc.b	@r1,	r13	
    caaa:	6e 79       	subc.b	@r9,	r14	
    caac:	20 61       	addc	@r1,	r0	
    caae:	72 67       	addc.b	@r7+,	r2	
    cab0:	75 65       	addc.b	@r5+,	r5	
    cab2:	6d 65       	addc.b	@r5,	r13	
    cab4:	6e 74       	subc.b	@r4,	r14	
    cab6:	73 20       	jnz	$+232    	;abs 0xcb9e
    cab8:	67 69       	addc.b	@r9,	r7	
    caba:	76 65       	addc.b	@r5+,	r6	
    cabc:	6e 0a       	.word	0x0a6e;	????	
    cabe:	0d 00       	.word	0x000d;	????	
    cac0:	0a 00       	.word	0x000a;	????	

0000cac2 <_dv>:
    cac2:	00 ca       	bic	r10,	r0	
    cac4:	9a 3b       	jl	$-202    	;abs 0xc9fa
    cac6:	00 e1       	xor	r1,	r0	
    cac8:	f5 05       	.word	0x05f5;	????	
    caca:	80 96 98 00 	cmp	r6,	152(r0)	;PC rel. 0xcb64
    cace:	40 42       	br	r2		
    cad0:	0f 00       	.word	0x000f;	????	
    cad2:	a0 86 01 00 	sub	@r6,	1(r0)	;PC rel. 0xcad5
    cad6:	10 27       	jz	$-478    	;abs 0xc8f8
    cad8:	00 00       	.word	0x0000;	????	
    cada:	e8 03       	.word	0x03e8;	????	
    cadc:	00 00       	.word	0x0000;	????	
    cade:	64 00       	.word	0x0064;	????	
    cae0:	00 00       	.word	0x0000;	????	
    cae2:	0a 00       	.word	0x000a;	????	
    cae4:	00 00       	.word	0x0000;	????	
    cae6:	01 00       	.word	0x0001;	????	
	...

0000caea <hex.1308>:
    caea:	30 31       	jn	$+610    	;abs 0xcd4c
    caec:	32 33       	jn	$-410    	;abs 0xc952
    caee:	34 35       	jge	$+618    	;abs 0xcd58
    caf0:	36 37       	jge	$-402    	;abs 0xc95e
    caf2:	38 39       	jl	$+626    	;abs 0xcd64
    caf4:	41 42       	mov.b	r2,	r1	
    caf6:	43 44       	.word	0x4443;	????	Illegal as 2-op instr
    caf8:	45 46       	mov.b	r6,	r5	

Disassembly of section .data:

00000200 <__data_start>:
 200:	bf 00       	.word	0x00bf;	????	
 202:	b0 00       	.word	0x00b0;	????	
 204:	db 00       	.word	0x00db;	????	
 206:	cf 00       	.word	0x00cf;	????	
 208:	e6 00       	.word	0x00e6;	????	
 20a:	ed 00       	.word	0x00ed;	????	
 20c:	fd 00       	.word	0x00fd;	????	
 20e:	87 00       	.word	0x0087;	????	
 210:	ff 00       	.word	0x00ff;	????	
 212:	e7 00       	.word	0x00e7;	????	
 214:	f7 00       	.word	0x00f7;	????	
 216:	fc 00       	.word	0x00fc;	????	
 218:	b9 00       	.word	0x00b9;	????	
 21a:	de 00       	.word	0x00de;	????	
 21c:	fb 00       	.word	0x00fb;	????	
 21e:	f1 00       	.word	0x00f1;	????	

00000220 <digitCounterArray>:
 220:	17 00       	.word	0x0017;	????	
 222:	27 00       	.word	0x0027;	????	
 224:	47 00       	.word	0x0047;	????	
 226:	87 00       	.word	0x0087;	????	

00000228 <my_shell_cmds>:
 228:	03 00       	.word	0x0003;	????	
 22a:	be c9 c3 c9 	bic	@r9+,	-13885(r14);0xc9c3(r14)
 22e:	76 c1       	bic.b	@r1+,	r6	
 230:	db c9 e0 c9 	bic.b	-13856(r9),-15928(r11);0xc9e0(r9), 0xc1c8(r11)
 234:	c8 c1 
 236:	fb c9 00 ca 	bic.b	@r9+,	-13824(r11);0xca00(r11)
 23a:	10 c2       	Address 0x000000000000023c is out of bounds.
bic	&0xffff,r0	

Disassembly of section .bss:

0000023c <__bss_start>:
	...

0000023e <firstValue>:
	...

00000240 <secondValue>:
	...

00000242 <desiredDisplay>:
	...

Disassembly of section .noinit:

0000024a <__wdt_clear_value>:
	...

Disassembly of section .vectors:

0000ffe0 <__ivtbl_16>:
    ffe0:	72 c1       	bic.b	@r1+,	r2	
    ffe2:	72 c1       	bic.b	@r1+,	r2	
    ffe4:	72 c1       	bic.b	@r1+,	r2	
    ffe6:	72 c1       	bic.b	@r1+,	r2	
    ffe8:	72 c1       	bic.b	@r1+,	r2	
    ffea:	72 c1       	bic.b	@r1+,	r2	
    ffec:	72 c1       	bic.b	@r1+,	r2	
    ffee:	72 c1       	bic.b	@r1+,	r2	
    fff0:	72 c1       	bic.b	@r1+,	r2	
    fff2:	8a c2 72 c1 	bic	r2,	-16014(r10);0xc172(r10)
    fff6:	72 c1       	bic.b	@r1+,	r2	
    fff8:	72 c1       	bic.b	@r1+,	r2	
    fffa:	72 c1       	bic.b	@r1+,	r2	
    fffc:	72 c1       	bic.b	@r1+,	r2	
    fffe:	00 c0       	bic	r0,	r0	

Disassembly of section .debug_aranges:

00000000 <.debug_aranges>:
   0:	14 00       	.word	0x0014;	????	
   2:	00 00       	.word	0x0000;	????	
   4:	02 00       	.word	0x0002;	????	
   6:	00 00       	.word	0x0000;	????	
   8:	00 00       	.word	0x0000;	????	
   a:	02 00       	.word	0x0002;	????	
   c:	76 c1       	bic.b	@r1+,	r6	
   e:	e6 01       	.word	0x01e6;	????	
  10:	3e c0 2e 01 	bic	#302,	r14	;#0x012e
  14:	00 00       	.word	0x0000;	????	
  16:	00 00       	.word	0x0000;	????	
  18:	10 00       	.word	0x0010;	????	
  1a:	00 00       	.word	0x0000;	????	
  1c:	02 00       	.word	0x0002;	????	
  1e:	35 04       	.word	0x0435;	????	
  20:	00 00       	.word	0x0000;	????	
  22:	02 00       	.word	0x0002;	????	
  24:	5c c3       	bic.b	#1,	r12	;r3 As==01
  26:	c2 01       	.word	0x01c2;	????	
  28:	00 00       	.word	0x0000;	????	
  2a:	00 00       	.word	0x0000;	????	
  2c:	10 00       	.word	0x0010;	????	
  2e:	00 00       	.word	0x0000;	????	
  30:	02 00       	.word	0x0002;	????	
  32:	74 07       	.word	0x0774;	????	
  34:	00 00       	.word	0x0000;	????	
  36:	02 00       	.word	0x0002;	????	
  38:	1e c5 6a 02 	bic	618(r5),r14	;0x026a(r5)
  3c:	00 00       	.word	0x0000;	????	
  3e:	00 00       	.word	0x0000;	????	
  40:	10 00       	.word	0x0010;	????	
  42:	00 00       	.word	0x0000;	????	
  44:	02 00       	.word	0x0002;	????	
  46:	c8 09       	.word	0x09c8;	????	
  48:	00 00       	.word	0x0000;	????	
  4a:	02 00       	.word	0x0002;	????	
  4c:	88 c7 0c 00 	bic	r7,	12(r8)	;0x000c(r8)
  50:	00 00       	.word	0x0000;	????	
  52:	00 00       	.word	0x0000;	????	
  54:	10 00       	.word	0x0010;	????	
  56:	00 00       	.word	0x0000;	????	
  58:	02 00       	.word	0x0002;	????	
  5a:	26 0a       	.word	0x0a26;	????	
  5c:	00 00       	.word	0x0000;	????	
  5e:	02 00       	.word	0x0002;	????	
  60:	94 c7 62 01 	bic	354(r7),0(r4)	;0x0162(r7), 0x0000(r4)
  64:	00 00 
  66:	00 00       	.word	0x0000;	????	
  68:	10 00       	.word	0x0010;	????	
  6a:	00 00       	.word	0x0000;	????	
  6c:	02 00       	.word	0x0002;	????	
  6e:	ed 0b       	.word	0x0bed;	????	
  70:	00 00       	.word	0x0000;	????	
  72:	02 00       	.word	0x0002;	????	
  74:	f6 c8 3a 00 	bic.b	@r8+,	58(r6)	;0x003a(r6)
  78:	00 00       	.word	0x0000;	????	
  7a:	00 00       	.word	0x0000;	????	
  7c:	10 00       	.word	0x0010;	????	
  7e:	00 00       	.word	0x0000;	????	
  80:	02 00       	.word	0x0002;	????	
  82:	75 0c       	.word	0x0c75;	????	
  84:	00 00       	.word	0x0000;	????	
  86:	02 00       	.word	0x0002;	????	
  88:	30 c9       	bic	@r9+,	r0	
  8a:	22 00       	.word	0x0022;	????	
  8c:	00 00       	.word	0x0000;	????	
  8e:	00 00       	.word	0x0000;	????	
  90:	10 00       	.word	0x0010;	????	
  92:	00 00       	.word	0x0000;	????	
  94:	02 00       	.word	0x0002;	????	
  96:	fd 0c       	.word	0x0cfd;	????	
  98:	00 00       	.word	0x0000;	????	
  9a:	02 00       	.word	0x0002;	????	
  9c:	52 c9 6a 00 	bic.b	106(r9),r2	;0x006a(r9)
  a0:	00 00       	.word	0x0000;	????	
  a2:	00 00       	.word	0x0000;	????	
  a4:	10 00       	.word	0x0010;	????	
  a6:	00 00       	.word	0x0000;	????	
  a8:	02 00       	.word	0x0002;	????	
  aa:	fb 0d       	.word	0x0dfb;	????	
  ac:	00 00       	.word	0x0000;	????	
  ae:	02 00       	.word	0x0002;	????	
  b0:	00 c0       	bic	r0,	r0	
  b2:	0c 00       	.word	0x000c;	????	
  b4:	00 00       	.word	0x0000;	????	
  b6:	00 00       	.word	0x0000;	????	
  b8:	10 00       	.word	0x0010;	????	
  ba:	00 00       	.word	0x0000;	????	
  bc:	02 00       	.word	0x0002;	????	
  be:	6a 0e       	.word	0x0e6a;	????	
  c0:	00 00       	.word	0x0000;	????	
  c2:	02 00       	.word	0x0002;	????	
  c4:	0c c0       	bic	r0,	r12	
  c6:	04 00       	.word	0x0004;	????	
  c8:	00 00       	.word	0x0000;	????	
  ca:	00 00       	.word	0x0000;	????	
  cc:	10 00       	.word	0x0010;	????	
  ce:	00 00       	.word	0x0000;	????	
  d0:	02 00       	.word	0x0002;	????	
  d2:	d9 0e       	.word	0x0ed9;	????	
  d4:	00 00       	.word	0x0000;	????	
  d6:	02 00       	.word	0x0002;	????	
  d8:	10 c0 18 00 	bic	24(r0),	r0	;PC rel. 0x00f2
  dc:	00 00       	.word	0x0000;	????	
  de:	00 00       	.word	0x0000;	????	
  e0:	10 00       	.word	0x0010;	????	
  e2:	00 00       	.word	0x0000;	????	
  e4:	02 00       	.word	0x0002;	????	
  e6:	48 0f       	.word	0x0f48;	????	
  e8:	00 00       	.word	0x0000;	????	
  ea:	02 00       	.word	0x0002;	????	
  ec:	28 c0       	bic	@r0,	r8	
  ee:	16 00       	.word	0x0016;	????	
  f0:	00 00       	.word	0x0000;	????	
  f2:	00 00       	.word	0x0000;	????	
  f4:	10 00       	.word	0x0010;	????	
  f6:	00 00       	.word	0x0000;	????	
  f8:	02 00       	.word	0x0002;	????	
  fa:	b7 0f       	.word	0x0fb7;	????	
  fc:	00 00       	.word	0x0000;	????	
  fe:	02 00       	.word	0x0002;	????	
 100:	6c c1       	bic.b	@r1,	r12	
 102:	06 00       	.word	0x0006;	????	
 104:	00 00       	.word	0x0000;	????	
 106:	00 00       	.word	0x0000;	????	
 108:	10 00       	.word	0x0010;	????	
 10a:	00 00       	.word	0x0000;	????	
 10c:	02 00       	.word	0x0002;	????	
 10e:	26 10       	rrc	@r6		
 110:	00 00       	.word	0x0000;	????	
 112:	02 00       	.word	0x0002;	????	
 114:	bc c9 02 00 	bic	@r9+,	2(r12)	;0x0002(r12)
 118:	00 00       	.word	0x0000;	????	
	...

Disassembly of section .debug_info:

00000000 <.debug_info>:
       0:	31 04       	.word	0x0431;	????	
       2:	00 00       	.word	0x0000;	????	
       4:	02 00       	.word	0x0002;	????	
       6:	00 00       	.word	0x0000;	????	
       8:	00 00       	.word	0x0000;	????	
       a:	02 01       	.word	0x0102;	????	
       c:	4b 01       	.word	0x014b;	????	
       e:	00 00       	.word	0x0000;	????	
      10:	01 39       	jl	$+516    	;abs 0x214
      12:	00 00       	.word	0x0000;	????	
      14:	00 f7       	and	r7,	r0	
	...
      22:	00 00       	.word	0x0000;	????	
      24:	00 02       	.word	0x0200;	????	
      26:	02 07       	.word	0x0702;	????	
      28:	34 04       	.word	0x0434;	????	
      2a:	00 00       	.word	0x0000;	????	
      2c:	03 10       	rrc	#0		;r3 As==00
      2e:	02 3d       	jmp	$+518    	;abs 0x234
      30:	43 00       	.word	0x0043;	????	
      32:	00 00       	.word	0x0000;	????	
      34:	04 76       	subc	r6,	r4	
      36:	61 6c       	addc.b	@r12,	r1	
      38:	00 02       	.word	0x0200;	????	
      3a:	41 43       	clr.b	r1		
      3c:	00 00       	.word	0x0000;	????	
      3e:	00 02       	.word	0x0200;	????	
      40:	23 00       	.word	0x0023;	????	
      42:	00 05       	.word	0x0500;	????	
      44:	53 00       	.word	0x0053;	????	
      46:	00 00       	.word	0x0000;	????	
      48:	53 00       	.word	0x0053;	????	
      4a:	00 00       	.word	0x0000;	????	
      4c:	06 25       	jz	$+526    	;abs 0x25a
      4e:	00 00       	.word	0x0000;	????	
      50:	00 0e       	.word	0x0e00;	????	
      52:	00 02       	.word	0x0200;	????	
      54:	01 06       	.word	0x0601;	????	
      56:	5e 00       	.word	0x005e;	????	
      58:	00 00       	.word	0x0000;	????	
      5a:	07 89       	sub	r9,	r7	
      5c:	01 00       	.word	0x0001;	????	
      5e:	00 02       	.word	0x0200;	????	
      60:	42 2c       	jc	$+134    	;abs 0xe6
      62:	00 00       	.word	0x0000;	????	
      64:	00 03       	.word	0x0300;	????	
      66:	52 02       	.word	0x0252;	????	
      68:	47 8a       	sub.b	r10,	r7	
      6a:	00 00       	.word	0x0000;	????	
      6c:	00 08       	.word	0x0800;	????	
      6e:	18 00       	.word	0x0018;	????	
      70:	00 00       	.word	0x0000;	????	
      72:	02 4b       	mov	r11,	r2	
      74:	8a 00       	.word	0x008a;	????	
      76:	00 00       	.word	0x0000;	????	
      78:	02 23       	jnz	$-506    	;abs 0xfe7e
      7a:	00 08       	.word	0x0800;	????	
      7c:	f2 00       	.word	0x00f2;	????	
      7e:	00 00       	.word	0x0000;	????	
      80:	02 50       	add	r0,	r2	
      82:	91 00       	.word	0x0091;	????	
      84:	00 00       	.word	0x0000;	????	
      86:	02 23       	jnz	$-506    	;abs 0xfe8c
      88:	02 00       	.word	0x0002;	????	
      8a:	02 01       	.word	0x0102;	????	
      8c:	08 55       	add	r5,	r8	
      8e:	00 00       	.word	0x0000;	????	
      90:	00 05       	.word	0x0500;	????	
      92:	5a 00       	.word	0x005a;	????	
      94:	00 00       	.word	0x0000;	????	
      96:	a1 00       	.word	0x00a1;	????	
      98:	00 00       	.word	0x0000;	????	
      9a:	06 25       	jz	$+526    	;abs 0x2a8
      9c:	00 00       	.word	0x0000;	????	
      9e:	00 04       	.word	0x0400;	????	
      a0:	00 07       	.word	0x0700;	????	
      a2:	e8 00       	.word	0x00e8;	????	
      a4:	00 00       	.word	0x0000;	????	
      a6:	02 51       	add	r1,	r2	
      a8:	65 00       	.word	0x0065;	????	
      aa:	00 00       	.word	0x0000;	????	
      ac:	03 06       	.word	0x0603;	????	
      ae:	02 56       	add	r6,	r2	
      b0:	df 00       	.word	0x00df;	????	
      b2:	00 00       	.word	0x0000;	????	
      b4:	04 63       	adc	r4		
      b6:	6d 64       	addc.b	@r4,	r13	
      b8:	00 02       	.word	0x0200;	????	
      ba:	5a df 00 00 	bis.b	0(r15),	r10	;0x0000(r15)
      be:	00 02       	.word	0x0200;	????	
      c0:	23 00       	.word	0x0023;	????	
      c2:	08 34       	jge	$+18     	;abs 0xd4
      c4:	00 00       	.word	0x0000;	????	
      c6:	00 02       	.word	0x0200;	????	
      c8:	5f df 00 00 	bis.b	0(r15),	r15	;0x0000(r15)
      cc:	00 02       	.word	0x0200;	????	
      ce:	23 02       	.word	0x0223;	????	
      d0:	08 d4       	bis	r4,	r8	
      d2:	00 00       	.word	0x0000;	????	
      d4:	00 02       	.word	0x0200;	????	
      d6:	64 07       	.word	0x0764;	????	
      d8:	01 00       	.word	0x0001;	????	
      da:	00 02       	.word	0x0200;	????	
      dc:	23 04       	.word	0x0423;	????	
      de:	00 09       	.word	0x0900;	????	
      e0:	02 e5       	xor	r5,	r2	
      e2:	00 00       	.word	0x0000;	????	
      e4:	00 0a       	.word	0x0a00;	????	
      e6:	53 00       	.word	0x0053;	????	
      e8:	00 00       	.word	0x0000;	????	
      ea:	0b 01       	.word	0x010b;	????	
      ec:	fa 00       	.word	0x00fa;	????	
      ee:	00 00       	.word	0x0000;	????	
      f0:	fa 00       	.word	0x00fa;	????	
      f2:	00 00       	.word	0x0000;	????	
      f4:	0c 01       	.word	0x010c;	????	
      f6:	01 00       	.word	0x0001;	????	
      f8:	00 00       	.word	0x0000;	????	
      fa:	0d 02       	.word	0x020d;	????	
      fc:	05 69       	addc	r9,	r5	
      fe:	6e 74       	subc.b	@r4,	r14	
     100:	00 09       	.word	0x0900;	????	
     102:	02 a1       	dadd	r1,	r2	
     104:	00 00       	.word	0x0000;	????	
     106:	00 09       	.word	0x0900;	????	
     108:	02 ea       	xor	r10,	r2	
     10a:	00 00       	.word	0x0000;	????	
     10c:	00 07       	.word	0x0700;	????	
     10e:	a1 01       	.word	0x01a1;	????	
     110:	00 00       	.word	0x0000;	????	
     112:	02 65       	addc	r5,	r2	
     114:	ac 00       	.word	0x00ac;	????	
     116:	00 00       	.word	0x0000;	????	
     118:	03 02       	.word	0x0203;	????	
     11a:	02 6a       	addc	r10,	r2	
     11c:	3d 01       	.word	0x013d;	????	
     11e:	00 00       	.word	0x0000;	????	
     120:	08 18       	.word	0x1808;	????	
     122:	00 00       	.word	0x0000;	????	
     124:	00 02       	.word	0x0200;	????	
     126:	6e 8a       	sub.b	@r10,	r14	
     128:	00 00       	.word	0x0000;	????	
     12a:	00 02       	.word	0x0200;	????	
     12c:	23 00       	.word	0x0023;	????	
     12e:	08 b9       	bit	r9,	r8	
     130:	00 00       	.word	0x0000;	????	
     132:	00 02       	.word	0x0200;	????	
     134:	73 3d       	jmp	$+744    	;abs 0x41c
     136:	01 00       	.word	0x0001;	????	
     138:	00 02       	.word	0x0200;	????	
     13a:	23 02       	.word	0x0223;	????	
     13c:	00 05       	.word	0x0500;	????	
     13e:	0d 01       	.word	0x010d;	????	
     140:	00 00       	.word	0x0000;	????	
     142:	4c 01       	.word	0x014c;	????	
     144:	00 00       	.word	0x0000;	????	
     146:	0e 25       	jz	$+542    	;abs 0x364
     148:	00 00       	.word	0x0000;	????	
     14a:	00 00       	.word	0x0000;	????	
     14c:	07 b3       	bit	#0,	r7	;r3 As==00
     14e:	00 00       	.word	0x0000;	????	
     150:	00 02       	.word	0x0200;	????	
     152:	74 18       	.word	0x1874;	????	
     154:	01 00       	.word	0x0001;	????	
     156:	00 0f       	.word	0x0f00;	????	
     158:	01 09       	.word	0x0901;	????	
     15a:	00 00       	.word	0x0000;	????	
     15c:	00 01       	.word	0x0100;	????	
     15e:	45 01       	.word	0x0145;	????	
     160:	fa 00       	.word	0x00fa;	????	
     162:	00 00       	.word	0x0000;	????	
     164:	76 c1       	bic.b	@r1+,	r6	
     166:	c8 c1 00 00 	bic.b	r1,	0(r8)	;0x0000(r8)
     16a:	00 00       	.word	0x0000;	????	
     16c:	8b 01       	.word	0x018b;	????	
     16e:	00 00       	.word	0x0000;	????	
     170:	10 f2 00 00 	and	&0x0000,r0	
     174:	00 01       	.word	0x0100;	????	
     176:	45 01       	.word	0x0145;	????	
     178:	01 00       	.word	0x0001;	????	
     17a:	00 02       	.word	0x0200;	????	
     17c:	91 7c 11 6b 	subc	27409(r12),256(r1)	;0x6b11(r12), 0x0100(r1)
     180:	00 01 
     182:	47 fa       	and.b	r10,	r7	
     184:	00 00       	.word	0x0000;	????	
     186:	00 02       	.word	0x0200;	????	
     188:	91 7a 00 0f 	subc	3840(r10),-19455(r1);0x0f00(r10), 0xb401(r1)
     18c:	01 b4 
     18e:	01 00       	.word	0x0001;	????	
     190:	00 01       	.word	0x0100;	????	
     192:	50 01       	.word	0x0150;	????	
     194:	fa 00       	.word	0x00fa;	????	
     196:	00 00       	.word	0x0000;	????	
     198:	c8 c1 10 c2 	bic.b	r1,	-15856(r8);0xc210(r8)
     19c:	34 00       	.word	0x0034;	????	
     19e:	00 00       	.word	0x0000;	????	
     1a0:	bf 01       	.word	0x01bf;	????	
     1a2:	00 00       	.word	0x0000;	????	
     1a4:	10 f2 00 00 	and	&0x0000,r0	
     1a8:	00 01       	.word	0x0100;	????	
     1aa:	50 01       	.word	0x0150;	????	
     1ac:	01 00       	.word	0x0001;	????	
     1ae:	00 02       	.word	0x0200;	????	
     1b0:	91 7c 11 6b 	subc	27409(r12),256(r1)	;0x6b11(r12), 0x0100(r1)
     1b4:	00 01 
     1b6:	52 fa 00 00 	and.b	0(r10),	r2	;0x0000(r10)
     1ba:	00 02       	.word	0x0200;	????	
     1bc:	91 7a 00 0f 	subc	3840(r10),25345(r1);0x0f00(r10), 0x6301(r1)
     1c0:	01 63 
     1c2:	00 00       	.word	0x0000;	????	
     1c4:	00 01       	.word	0x0100;	????	
     1c6:	5d 01       	.word	0x015d;	????	
     1c8:	fa 00       	.word	0x00fa;	????	
     1ca:	00 00       	.word	0x0000;	????	
     1cc:	10 c2 76 c2 	bic	&0xc276,r0	
     1d0:	60 00       	.word	0x0060;	????	
     1d2:	00 00       	.word	0x0000;	????	
     1d4:	01 02       	.word	0x0201;	????	
     1d6:	00 00       	.word	0x0000;	????	
     1d8:	10 f2 00 00 	and	&0x0000,r0	
     1dc:	00 01       	.word	0x0100;	????	
     1de:	5d 01       	.word	0x015d;	????	
     1e0:	01 00       	.word	0x0001;	????	
     1e2:	00 02       	.word	0x0200;	????	
     1e4:	91 7c 11 6b 	subc	27409(r12),256(r1)	;0x6b11(r12), 0x0100(r1)
     1e8:	00 01 
     1ea:	5f fa 00 00 	and.b	0(r10),	r15	;0x0000(r10)
     1ee:	00 02       	.word	0x0200;	????	
     1f0:	91 78 12 2f 	subc	12050(r8),1(r1)	;0x2f12(r8), 0x0001(r1)
     1f4:	01 00 
     1f6:	00 01       	.word	0x0100;	????	
     1f8:	67 01       	.word	0x0167;	????	
     1fa:	02 00       	.word	0x0002;	????	
     1fc:	00 02       	.word	0x0200;	????	
     1fe:	91 7a 00 09 	subc	2304(r10),21250(r1);0x0900(r10), 0x5302(r1)
     202:	02 53 
     204:	00 00       	.word	0x0000;	????	
     206:	00 0f       	.word	0x0f00;	????	
     208:	01 c3       	bic	#0,	r1	;r3 As==00
     20a:	01 00       	.word	0x0001;	????	
     20c:	00 02       	.word	0x0200;	????	
     20e:	ab 01       	.word	0x01ab;	????	
     210:	fa 00       	.word	0x00fa;	????	
     212:	00 00       	.word	0x0000;	????	
     214:	76 c2       	bic.b	#8,	r6	;r2 As==11
     216:	8a c2 8c 00 	bic	r2,	140(r10);0x008c(r10)
     21a:	00 00       	.word	0x0000;	????	
     21c:	2f 02       	.word	0x022f;	????	
     21e:	00 00       	.word	0x0000;	????	
     220:	10 a7 00 00 	dadd	0(r7),	r0	;0x0000(r7)
     224:	00 01       	.word	0x0100;	????	
     226:	6e 01       	.word	0x016e;	????	
     228:	02 00       	.word	0x0002;	????	
     22a:	00 02       	.word	0x0200;	????	
     22c:	91 7c 00 0f 	subc	3840(r12),-9983(r1);0x0f00(r12), 0xd901(r1)
     230:	01 d9 
     232:	00 00       	.word	0x0000;	????	
     234:	00 01       	.word	0x0100;	????	
     236:	78 01       	.word	0x0178;	????	
     238:	fa 00       	.word	0x00fa;	????	
     23a:	00 00       	.word	0x0000;	????	
     23c:	3e c0 6c c1 	bic	#-16020,r14	;#0xc16c
     240:	a0 00       	.word	0x00a0;	????	
     242:	00 00       	.word	0x0000;	????	
     244:	78 02       	.word	0x0278;	????	
     246:	00 00       	.word	0x0000;	????	
     248:	13 98       	.word	0x9813;	????	Illegal as 2-op instr
     24a:	c0 6a c1 11 	addc.b	r10,	4545(r0);PC rel. 0x140d
     24e:	6a 00       	.word	0x006a;	????	
     250:	01 97       	cmp	r7,	r1	
     252:	fa 00       	.word	0x00fa;	????	
     254:	00 00       	.word	0x0000;	????	
     256:	03 91       	.word	0x9103;	????	Illegal as 2-op instr
     258:	a2 7f 12 a7 	subc	@r15,	&0xa712	
     25c:	00 00       	.word	0x0000;	????	
     25e:	00 01       	.word	0x0100;	????	
     260:	98 78 02 00 	subc	2(r8),	768(r8)	;0x0002(r8), 0x0300(r8)
     264:	00 03 
     266:	91 a5 7f 11 	dadd	4479(r5),99(r1)	;0x117f(r5), 0x0063(r1)
     26a:	63 00 
     26c:	01 9b       	cmp	r11,	r1	
     26e:	53 00       	.word	0x0053;	????	
     270:	00 00       	.word	0x0000;	????	
     272:	03 91       	.word	0x9103;	????	Illegal as 2-op instr
     274:	a4 7f 00 00 	subc	@r15,	0(r4)	;0x0000(r4)
     278:	05 53       	add	#0,	r5	;r3 As==00
     27a:	00 00       	.word	0x0000;	????	
     27c:	00 88       	sub	r8,	r0	
     27e:	02 00       	.word	0x0002;	????	
     280:	00 06       	.word	0x0600;	????	
     282:	25 00       	.word	0x0025;	????	
     284:	00 00       	.word	0x0000;	????	
     286:	59 00       	.word	0x0059;	????	
     288:	14 01       	.word	0x0114;	????	
     28a:	1e 00       	.word	0x001e;	????	
     28c:	00 00       	.word	0x0000;	????	
     28e:	01 c3       	bic	#0,	r1	;r3 As==00
     290:	01 8a       	sub	r10,	r1	
     292:	c2 5c c3 b5 	add.b	r12,	&0xb5c3	
     296:	00 00       	.word	0x0000;	????	
     298:	00 15       	.word	0x1500;	????	
     29a:	82 01       	.word	0x0182;	????	
     29c:	00 00       	.word	0x0000;	????	
     29e:	03 24       	jz	$+8      	;abs 0x2a6
     2a0:	01 80       	sub	r0,	r1	
     2a2:	01 00       	.word	0x0001;	????	
     2a4:	00 ab       	dadd	r11,	r0	
     2a6:	02 00       	.word	0x0002;	????	
     2a8:	00 01       	.word	0x0100;	????	
     2aa:	01 16       	.word	0x1601;	????	
     2ac:	8a 00       	.word	0x008a;	????	
     2ae:	00 00       	.word	0x0000;	????	
     2b0:	15 99 01 00 	cmp	1(r9),	r5	;0x0001(r9)
     2b4:	00 03       	.word	0x0300;	????	
     2b6:	26 01       	.word	0x0126;	????	
     2b8:	97 01       	.word	0x0197;	????	
     2ba:	00 00       	.word	0x0000;	????	
     2bc:	ab 02       	.word	0x02ab;	????	
     2be:	00 00       	.word	0x0000;	????	
     2c0:	01 01       	.word	0x0101;	????	
     2c2:	15 74 00 00 	subc	0(r4),	r5	;0x0000(r4)
     2c6:	00 03       	.word	0x0300;	????	
     2c8:	da 01       	.word	0x01da;	????	
     2ca:	72 00       	.word	0x0072;	????	
     2cc:	00 00       	.word	0x0000;	????	
     2ce:	ab 02       	.word	0x02ab;	????	
     2d0:	00 00       	.word	0x0000;	????	
     2d2:	01 01       	.word	0x0101;	????	
     2d4:	15 43       	mov	#1,	r5	;r3 As==01
     2d6:	00 00       	.word	0x0000;	????	
     2d8:	00 03       	.word	0x0300;	????	
     2da:	dc 01       	.word	0x01dc;	????	
     2dc:	41 00       	.word	0x0041;	????	
     2de:	00 00       	.word	0x0000;	????	
     2e0:	ab 02       	.word	0x02ab;	????	
     2e2:	00 00       	.word	0x0000;	????	
     2e4:	01 01       	.word	0x0101;	????	
     2e6:	15 0f       	.word	0x0f15;	????	
     2e8:	01 00       	.word	0x0001;	????	
     2ea:	00 03       	.word	0x0300;	????	
     2ec:	ed 01       	.word	0x01ed;	????	
     2ee:	0d 01       	.word	0x010d;	????	
     2f0:	00 00       	.word	0x0000;	????	
     2f2:	ab 02       	.word	0x02ab;	????	
     2f4:	00 00       	.word	0x0000;	????	
     2f6:	01 01       	.word	0x0101;	????	
     2f8:	15 2e       	jc	$-980    	;abs 0xff24
     2fa:	00 00       	.word	0x0000;	????	
     2fc:	00 03       	.word	0x0300;	????	
     2fe:	ef 01       	.word	0x01ef;	????	
     300:	2c 00       	.word	0x002c;	????	
     302:	00 00       	.word	0x0000;	????	
     304:	ab 02       	.word	0x02ab;	????	
     306:	00 00       	.word	0x0000;	????	
     308:	01 01       	.word	0x0101;	????	
     30a:	15 c0 00 00 	bic	0(r0),	r5	;PC rel. 0x030c
     30e:	00 03       	.word	0x0300;	????	
     310:	f7 01       	.word	0x01f7;	????	
     312:	be 00       	.word	0x00be;	????	
     314:	00 00       	.word	0x0000;	????	
     316:	ab 02       	.word	0x02ab;	????	
     318:	00 00       	.word	0x0000;	????	
     31a:	01 01       	.word	0x0101;	????	
     31c:	15 7c 00 00 	subc	0(r12),	r5	;0x0000(r12)
     320:	00 03       	.word	0x0300;	????	
     322:	17 02       	.word	0x0217;	????	
     324:	7a 00       	.word	0x007a;	????	
     326:	00 00       	.word	0x0000;	????	
     328:	2e 03       	.word	0x032e;	????	
     32a:	00 00       	.word	0x0000;	????	
     32c:	01 01       	.word	0x0101;	????	
     32e:	16 25       	jz	$+558    	;abs 0x55c
     330:	00 00       	.word	0x0000;	????	
     332:	00 15       	.word	0x1500;	????	
     334:	93 00       	.word	0x0093;	????	
     336:	00 00       	.word	0x0000;	????	
     338:	03 19       	.word	0x1903;	????	
     33a:	02 91       	cmp	r1,	r2	
     33c:	00 00       	.word	0x0000;	????	
     33e:	00 2e       	jc	$-1022   	;abs 0xff40
     340:	03 00       	.word	0x0003;	????	
     342:	00 01       	.word	0x0100;	????	
     344:	01 15       	.word	0x1501;	????	
     346:	9e 00       	.word	0x009e;	????	
     348:	00 00       	.word	0x0000;	????	
     34a:	03 1b       	.word	0x1b03;	????	
     34c:	02 9c       	cmp	r12,	r2	
     34e:	00 00       	.word	0x0000;	????	
     350:	00 2e       	jc	$-1022   	;abs 0xff52
     352:	03 00       	.word	0x0003;	????	
     354:	00 01       	.word	0x0100;	????	
     356:	01 15       	.word	0x1501;	????	
     358:	e0 00       	.word	0x00e0;	????	
     35a:	00 00       	.word	0x0000;	????	
     35c:	03 21       	jnz	$+520    	;abs 0x564
     35e:	02 de       	bis	r14,	r2	
     360:	00 00       	.word	0x0000;	????	
     362:	00 2e       	jc	$-1022   	;abs 0xff64
     364:	03 00       	.word	0x0003;	????	
     366:	00 01       	.word	0x0100;	????	
     368:	01 15       	.word	0x1501;	????	
     36a:	02 00       	.word	0x0002;	????	
     36c:	00 00       	.word	0x0000;	????	
     36e:	03 8a       	.word	0x8a03;	????	Illegal as 2-op instr
     370:	03 00       	.word	0x0003;	????	
     372:	00 00       	.word	0x0000;	????	
     374:	00 2e       	jc	$-1022   	;abs 0xff76
     376:	03 00       	.word	0x0003;	????	
     378:	00 01       	.word	0x0100;	????	
     37a:	01 15       	.word	0x1501;	????	
     37c:	85 00       	.word	0x0085;	????	
     37e:	00 00       	.word	0x0000;	????	
     380:	03 c6       	.word	0xc603;	????	Illegal as 2-op instr
     382:	03 83       	.word	0x8303;	????	Illegal as 2-op instr
     384:	00 00       	.word	0x0000;	????	
     386:	00 8d       	sub	r13,	r0	
     388:	03 00       	.word	0x0003;	????	
     38a:	00 01       	.word	0x0100;	????	
     38c:	01 0a       	.word	0x0a01;	????	
     38e:	ab 02       	.word	0x02ab;	????	
     390:	00 00       	.word	0x0000;	????	
     392:	15 c8 00 00 	bic	0(r8),	r5	;0x0000(r8)
     396:	00 03       	.word	0x0300;	????	
     398:	c8 03       	.word	0x03c8;	????	
     39a:	c6 00       	.word	0x00c6;	????	
     39c:	00 00       	.word	0x0000;	????	
     39e:	8d 03       	.word	0x038d;	????	
     3a0:	00 00       	.word	0x0000;	????	
     3a2:	01 01       	.word	0x0101;	????	
     3a4:	05 fa       	and	r10,	r5	
     3a6:	00 00       	.word	0x0000;	????	
     3a8:	00 b4       	bit	r4,	r0	
     3aa:	03 00       	.word	0x0003;	????	
     3ac:	00 06       	.word	0x0600;	????	
     3ae:	25 00       	.word	0x0025;	????	
     3b0:	00 00       	.word	0x0000;	????	
     3b2:	0f 00       	.word	0x000f;	????	
     3b4:	17 ab 01 00 	dadd	1(r11),	r7	;0x0001(r11)
     3b8:	00 01       	.word	0x0100;	????	
     3ba:	0e a4       	dadd	r4,	r14	
     3bc:	03 00       	.word	0x0003;	????	
     3be:	00 01       	.word	0x0100;	????	
     3c0:	03 03       	.word	0x0303;	????	
     3c2:	00 02       	.word	0x0200;	????	
     3c4:	05 fa       	and	r10,	r5	
     3c6:	00 00       	.word	0x0000;	????	
     3c8:	00 d4       	bis	r4,	r0	
     3ca:	03 00       	.word	0x0003;	????	
     3cc:	00 06       	.word	0x0600;	????	
     3ce:	25 00       	.word	0x0025;	????	
     3d0:	00 00       	.word	0x0000;	????	
     3d2:	03 00       	.word	0x0003;	????	
     3d4:	17 39       	jl	$+560    	;abs 0x604
     3d6:	01 00       	.word	0x0001;	????	
     3d8:	00 01       	.word	0x0100;	????	
     3da:	11 c4 03 00 	bic	3(r4),	r1	;0x0003(r4)
     3de:	00 01       	.word	0x0100;	????	
     3e0:	03 03       	.word	0x0303;	????	
     3e2:	20 02       	.word	0x0220;	????	
     3e4:	17 d1 01 00 	bis	1(r1),	r7	;0x0001(r1)
     3e8:	00 01       	.word	0x0100;	????	
     3ea:	18 fa 00 00 	and	0(r10),	r8	;0x0000(r10)
     3ee:	00 01       	.word	0x0100;	????	
     3f0:	03 03       	.word	0x0303;	????	
     3f2:	3c 02       	.word	0x023c;	????	
     3f4:	17 20       	jnz	$+48     	;abs 0x424
     3f6:	01 00       	.word	0x0001;	????	
     3f8:	00 01       	.word	0x0100;	????	
     3fa:	19 c4 03 00 	bic	3(r4),	r9	;0x0003(r4)
     3fe:	00 01       	.word	0x0100;	????	
     400:	03 03       	.word	0x0303;	????	
     402:	42 02       	.word	0x0242;	????	
     404:	17 15       	.word	0x1517;	????	
     406:	01 00       	.word	0x0001;	????	
     408:	00 01       	.word	0x0100;	????	
     40a:	1a fa 00 00 	and	0(r10),	r10	;0x0000(r10)
     40e:	00 01       	.word	0x0100;	????	
     410:	03 03       	.word	0x0303;	????	
     412:	3e 02       	.word	0x023e;	????	
     414:	17 49 00 00 	mov	0(r9),	r7	;0x0000(r9)
     418:	00 01       	.word	0x0100;	????	
     41a:	1b fa 00 00 	and	0(r10),	r11	;0x0000(r10)
     41e:	00 01       	.word	0x0100;	????	
     420:	03 03       	.word	0x0303;	????	
     422:	40 02       	.word	0x0240;	????	
     424:	17 b0 00 00 	bit	0(r0),	r7	;PC rel. 0x0426
     428:	00 01       	.word	0x0100;	????	
     42a:	2b 4c       	mov	@r12,	r11	
     42c:	01 00       	.word	0x0001;	????	
     42e:	00 01       	.word	0x0100;	????	
     430:	03 03       	.word	0x0303;	????	
     432:	28 02       	.word	0x0228;	????	
     434:	00 3b       	jl	$-510    	;abs 0x236
     436:	03 00       	.word	0x0003;	????	
     438:	00 02       	.word	0x0200;	????	
     43a:	00 2f       	jc	$-510    	;abs 0x23c
     43c:	01 00       	.word	0x0001;	????	
     43e:	00 02       	.word	0x0200;	????	
     440:	01 4b       	mov	r11,	r1	
     442:	01 00       	.word	0x0001;	????	
     444:	00 01       	.word	0x0100;	????	
     446:	39 00       	.word	0x0039;	????	
     448:	00 00       	.word	0x0000;	????	
     44a:	34 02       	.word	0x0234;	????	
     44c:	00 00       	.word	0x0000;	????	
     44e:	5c c3       	bic.b	#1,	r12	;r3 As==01
     450:	1e c5 25 02 	bic	549(r5),r14	;0x0225(r5)
     454:	00 00       	.word	0x0000;	????	
     456:	02 10       	rrc	r2		
     458:	02 3d       	jmp	$+518    	;abs 0x65e
     45a:	38 00       	.word	0x0038;	????	
     45c:	00 00       	.word	0x0000;	????	
     45e:	03 76       	.word	0x7603;	????	Illegal as 2-op instr
     460:	61 6c       	addc.b	@r12,	r1	
     462:	00 02       	.word	0x0200;	????	
     464:	41 38       	jl	$+132    	;abs 0x4e8
     466:	00 00       	.word	0x0000;	????	
     468:	00 02       	.word	0x0200;	????	
     46a:	23 00       	.word	0x0023;	????	
     46c:	00 04       	.word	0x0400;	????	
     46e:	4f 00       	.word	0x004f;	????	
     470:	00 00       	.word	0x0000;	????	
     472:	48 00       	.word	0x0048;	????	
     474:	00 00       	.word	0x0000;	????	
     476:	05 48       	mov	r8,	r5	
     478:	00 00       	.word	0x0000;	????	
     47a:	00 0e       	.word	0x0e00;	????	
     47c:	00 06       	.word	0x0600;	????	
     47e:	02 07       	.word	0x0702;	????	
     480:	34 04       	.word	0x0434;	????	
     482:	00 00       	.word	0x0000;	????	
     484:	06 01       	.word	0x0106;	????	
     486:	06 5e       	add	r14,	r6	
     488:	00 00       	.word	0x0000;	????	
     48a:	00 07       	.word	0x0700;	????	
     48c:	89 01       	.word	0x0189;	????	
     48e:	00 00       	.word	0x0000;	????	
     490:	02 42       	mov	r2,	r2	
     492:	21 00       	.word	0x0021;	????	
     494:	00 00       	.word	0x0000;	????	
     496:	02 52       	rla	r2		
     498:	02 47       	mov	r7,	r2	
     49a:	86 00       	.word	0x0086;	????	
     49c:	00 00       	.word	0x0000;	????	
     49e:	08 18       	.word	0x1808;	????	
     4a0:	00 00       	.word	0x0000;	????	
     4a2:	00 02       	.word	0x0200;	????	
     4a4:	4b 86       	sub.b	r6,	r11	
     4a6:	00 00       	.word	0x0000;	????	
     4a8:	00 02       	.word	0x0200;	????	
     4aa:	23 00       	.word	0x0023;	????	
     4ac:	08 f2       	and	r2,	r8	
     4ae:	00 00       	.word	0x0000;	????	
     4b0:	00 02       	.word	0x0200;	????	
     4b2:	50 8d 00 00 	sub.b	0(r13),	r0	;0x0000(r13)
     4b6:	00 02       	.word	0x0200;	????	
     4b8:	23 02       	.word	0x0223;	????	
     4ba:	00 06       	.word	0x0600;	????	
     4bc:	01 08       	.word	0x0801;	????	
     4be:	55 00       	.word	0x0055;	????	
     4c0:	00 00       	.word	0x0000;	????	
     4c2:	04 56       	add	r6,	r4	
     4c4:	00 00       	.word	0x0000;	????	
     4c6:	00 9d       	cmp	r13,	r0	
     4c8:	00 00       	.word	0x0000;	????	
     4ca:	00 05       	.word	0x0500;	????	
     4cc:	48 00       	.word	0x0048;	????	
     4ce:	00 00       	.word	0x0000;	????	
     4d0:	04 00       	.word	0x0004;	????	
     4d2:	07 e8       	xor	r8,	r7	
     4d4:	00 00       	.word	0x0000;	????	
     4d6:	00 02       	.word	0x0200;	????	
     4d8:	51 61 00 00 	addc.b	0(r1),	r1	;0x0000(r1)
     4dc:	00 02       	.word	0x0200;	????	
     4de:	06 02       	.word	0x0206;	????	
     4e0:	56 db 00 00 	bis.b	0(r11),	r6	;0x0000(r11)
     4e4:	00 03       	.word	0x0300;	????	
     4e6:	63 6d       	.word	0x6d63;	????	Illegal as 2-op instr
     4e8:	64 00       	.word	0x0064;	????	
     4ea:	02 5a       	add	r10,	r2	
     4ec:	db 00       	.word	0x00db;	????	
     4ee:	00 00       	.word	0x0000;	????	
     4f0:	02 23       	jnz	$-506    	;abs 0x2f6
     4f2:	00 08       	.word	0x0800;	????	
     4f4:	34 00       	.word	0x0034;	????	
     4f6:	00 00       	.word	0x0000;	????	
     4f8:	02 5f       	add	r15,	r2	
     4fa:	db 00       	.word	0x00db;	????	
     4fc:	00 00       	.word	0x0000;	????	
     4fe:	02 23       	jnz	$-506    	;abs 0x304
     500:	02 08       	.word	0x0802;	????	
     502:	d4 00       	.word	0x00d4;	????	
     504:	00 00       	.word	0x0000;	????	
     506:	02 64       	addc	r4,	r2	
     508:	03 01       	.word	0x0103;	????	
     50a:	00 00       	.word	0x0000;	????	
     50c:	02 23       	jnz	$-506    	;abs 0x312
     50e:	04 00       	.word	0x0004;	????	
     510:	09 02       	.word	0x0209;	????	
     512:	e1 00       	.word	0x00e1;	????	
     514:	00 00       	.word	0x0000;	????	
     516:	0a 4f       	mov	r15,	r10	
     518:	00 00       	.word	0x0000;	????	
     51a:	00 0b       	.word	0x0b00;	????	
     51c:	01 f6       	and	r6,	r1	
     51e:	00 00       	.word	0x0000;	????	
     520:	00 f6       	and	r6,	r0	
     522:	00 00       	.word	0x0000;	????	
     524:	00 0c       	.word	0x0c00;	????	
     526:	fd 00       	.word	0x00fd;	????	
     528:	00 00       	.word	0x0000;	????	
     52a:	00 0d       	.word	0x0d00;	????	
     52c:	02 05       	.word	0x0502;	????	
     52e:	69 6e       	addc.b	@r14,	r9	
     530:	74 00       	.word	0x0074;	????	
     532:	09 02       	.word	0x0209;	????	
     534:	9d 00       	.word	0x009d;	????	
     536:	00 00       	.word	0x0000;	????	
     538:	09 02       	.word	0x0209;	????	
     53a:	e6 00       	.word	0x00e6;	????	
     53c:	00 00       	.word	0x0000;	????	
     53e:	07 a1       	dadd	r1,	r7	
     540:	01 00       	.word	0x0001;	????	
     542:	00 02       	.word	0x0200;	????	
     544:	65 a8       	dadd.b	@r8,	r5	
     546:	00 00       	.word	0x0000;	????	
     548:	00 02       	.word	0x0200;	????	
     54a:	02 02       	.word	0x0202;	????	
     54c:	6a 39       	jl	$+726    	;abs 0x822
     54e:	01 00       	.word	0x0001;	????	
     550:	00 08       	.word	0x0800;	????	
     552:	18 00       	.word	0x0018;	????	
     554:	00 00       	.word	0x0000;	????	
     556:	02 6e       	addc	r14,	r2	
     558:	86 00       	.word	0x0086;	????	
     55a:	00 00       	.word	0x0000;	????	
     55c:	02 23       	jnz	$-506    	;abs 0x362
     55e:	00 08       	.word	0x0800;	????	
     560:	b9 00       	.word	0x00b9;	????	
     562:	00 00       	.word	0x0000;	????	
     564:	02 73       	sbc	r2		
     566:	39 01       	.word	0x0139;	????	
     568:	00 00       	.word	0x0000;	????	
     56a:	02 23       	jnz	$-506    	;abs 0x370
     56c:	02 00       	.word	0x0002;	????	
     56e:	04 09       	.word	0x0904;	????	
     570:	01 00       	.word	0x0001;	????	
     572:	00 48       	br	r8		
     574:	01 00       	.word	0x0001;	????	
     576:	00 0e       	.word	0x0e00;	????	
     578:	48 00       	.word	0x0048;	????	
     57a:	00 00       	.word	0x0000;	????	
     57c:	00 07       	.word	0x0700;	????	
     57e:	b3 00       	.word	0x00b3;	????	
     580:	00 00       	.word	0x0000;	????	
     582:	02 74       	subc	r4,	r2	
     584:	14 01       	.word	0x0114;	????	
     586:	00 00       	.word	0x0000;	????	
     588:	0f 01       	.word	0x010f;	????	
     58a:	26 02       	.word	0x0226;	????	
     58c:	00 00       	.word	0x0000;	????	
     58e:	01 16       	.word	0x1601;	????	
     590:	01 f6       	and	r6,	r1	
     592:	00 00       	.word	0x0000;	????	
     594:	00 5c       	add	r12,	r0	
     596:	c3 74       	subc.b	r4,	#1	;r3 As==01
     598:	c3 02       	.word	0x02c3;	????	
     59a:	71 02       	.word	0x0271;	????	
     59c:	88 01       	.word	0x0188;	????	
     59e:	00 00       	.word	0x0000;	????	
     5a0:	10 73       	subc	#1,	r0	;r3 As==01
     5a2:	74 72       	subc.b	#8,	r4	;r2 As==11
     5a4:	00 01       	.word	0x0100;	????	
     5a6:	16 88 01 00 	sub	1(r8),	r6	;0x0001(r8)
     5aa:	00 c9       	bic	r9,	r0	
     5ac:	00 00       	.word	0x0000;	????	
     5ae:	00 11       	rra	r0		
     5b0:	69 00       	.word	0x0069;	????	
     5b2:	01 18       	.word	0x1801;	????	
     5b4:	f6 00       	.word	0x00f6;	????	
     5b6:	00 00       	.word	0x0000;	????	
     5b8:	db 00       	.word	0x00db;	????	
     5ba:	00 00       	.word	0x0000;	????	
     5bc:	00 09       	.word	0x0900;	????	
     5be:	02 4f       	mov	r15,	r2	
     5c0:	00 00       	.word	0x0000;	????	
     5c2:	00 12       	push	r0		
     5c4:	01 01       	.word	0x0101;	????	
     5c6:	02 00       	.word	0x0002;	????	
     5c8:	00 01       	.word	0x0100;	????	
     5ca:	1f 01       	.word	0x011f;	????	
     5cc:	f6 00       	.word	0x00f6;	????	
     5ce:	00 00       	.word	0x0000;	????	
     5d0:	74 c3       	bic.b	#-1,	r4	;r3 As==11
     5d2:	b8 c3 fc 00 	bic	#-1,	252(r8)	;r3 As==11, 0x00fc(r8)
     5d6:	00 00       	.word	0x0000;	????	
     5d8:	eb 01       	.word	0x01eb;	????	
     5da:	00 00       	.word	0x0000;	????	
     5dc:	13 8f       	.word	0x8f13;	????	Illegal as 2-op instr
     5de:	02 00       	.word	0x0002;	????	
     5e0:	00 01       	.word	0x0100;	????	
     5e2:	1f 88 01 00 	sub	1(r8),	r15	;0x0001(r8)
     5e6:	00 20       	jnz	$+2      	;abs 0x5e8
     5e8:	01 00       	.word	0x0001;	????	
     5ea:	00 14       	.word	0x1400;	????	
     5ec:	1c 02       	.word	0x021c;	????	
     5ee:	00 00       	.word	0x0000;	????	
     5f0:	01 1f       	.word	0x1f01;	????	
     5f2:	88 01       	.word	0x0188;	????	
     5f4:	00 00       	.word	0x0000;	????	
     5f6:	01 5e       	add	r14,	r1	
     5f8:	14 21       	jnz	$+554    	;abs 0x822
     5fa:	02 00       	.word	0x0002;	????	
     5fc:	00 01       	.word	0x0100;	????	
     5fe:	1f f6 00 00 	and	0(r6),	r15	;0x0000(r6)
     602:	00 01       	.word	0x0100;	????	
     604:	5d 14       	.word	0x145d;	????	
     606:	67 02       	.word	0x0267;	????	
     608:	00 00       	.word	0x0000;	????	
     60a:	01 1f       	.word	0x1f01;	????	
     60c:	f6 00       	.word	0x00f6;	????	
     60e:	00 00       	.word	0x0000;	????	
     610:	01 5c       	add	r12,	r1	
     612:	11 69 00 01 	addc	256(r9),r1	;0x0100(r9)
     616:	21 f6       	and	@r6,	r1	
     618:	00 00       	.word	0x0000;	????	
     61a:	00 39       	jl	$+514    	;abs 0x81c
     61c:	01 00       	.word	0x0001;	????	
     61e:	00 00       	.word	0x0000;	????	
     620:	0f 01       	.word	0x010f;	????	
     622:	7f 02       	.word	0x027f;	????	
     624:	00 00       	.word	0x0000;	????	
     626:	01 32       	jn	$-1020   	;abs 0x22a
     628:	01 f6       	and	r6,	r1	
     62a:	00 00       	.word	0x0000;	????	
     62c:	00 b8       	bit	r8,	r0	
     62e:	c3 e8       	xor.b	r8,	#1	;r3 As==01
     630:	c3 02       	.word	0x02c3;	????	
     632:	71 02       	.word	0x0271;	????	
     634:	3c 02       	.word	0x023c;	????	
     636:	00 00       	.word	0x0000;	????	
     638:	10 73       	subc	#1,	r0	;r3 As==01
     63a:	74 72       	subc.b	#8,	r4	;r2 As==11
     63c:	00 01       	.word	0x0100;	????	
     63e:	32 88       	sub	@r8+,	r2	
     640:	01 00       	.word	0x0001;	????	
     642:	00 44       	br	r4		
     644:	01 00       	.word	0x0001;	????	
     646:	00 11       	rra	r0		
     648:	76 61       	addc.b	@r1+,	r6	
     64a:	6c 00       	.word	0x006c;	????	
     64c:	01 35       	jge	$+516    	;abs 0x850
     64e:	f6 00       	.word	0x00f6;	????	
     650:	00 00       	.word	0x0000;	????	
     652:	4f 01       	.word	0x014f;	????	
     654:	00 00       	.word	0x0000;	????	
     656:	11 69 00 01 	addc	256(r9),r1	;0x0100(r9)
     65a:	36 f6       	and	@r6+,	r6	
     65c:	00 00       	.word	0x0000;	????	
     65e:	00 69       	addc	r9,	r0	
     660:	01 00       	.word	0x0001;	????	
     662:	00 11       	rra	r0		
     664:	63 00       	.word	0x0063;	????	
     666:	01 38       	jl	$+4      	;abs 0x66a
     668:	4f 00       	.word	0x004f;	????	
     66a:	00 00       	.word	0x0000;	????	
     66c:	75 01       	.word	0x0175;	????	
     66e:	00 00       	.word	0x0000;	????	
     670:	00 12       	push	r0		
     672:	01 e3       	xor	#0,	r1	;r3 As==00
     674:	01 00       	.word	0x0001;	????	
     676:	00 01       	.word	0x0100;	????	
     678:	44 01       	.word	0x0144;	????	
     67a:	f6 00       	.word	0x00f6;	????	
     67c:	00 00       	.word	0x0000;	????	
     67e:	e8 c3 8e c4 	bic.b	#2,	-15218(r8);r3 As==10, 0xc48e(r8)
     682:	8f 01       	.word	0x018f;	????	
     684:	00 00       	.word	0x0000;	????	
     686:	b7 02       	.word	0x02b7;	????	
     688:	00 00       	.word	0x0000;	????	
     68a:	13 a7       	.word	0xa713;	????	Illegal as 2-op instr
     68c:	00 00       	.word	0x0000;	????	
     68e:	00 01       	.word	0x0100;	????	
     690:	44 88       	sub.b	r8,	r4	
     692:	01 00       	.word	0x0001;	????	
     694:	00 d3       	bis	#0,	r0	;r3 As==00
     696:	01 00       	.word	0x0001;	????	
     698:	00 15       	.word	0x1500;	????	
     69a:	6c 65       	addc.b	@r5,	r12	
     69c:	6e 00       	.word	0x006e;	????	
     69e:	01 44       	mov	r4,	r1	
     6a0:	f6 00       	.word	0x00f6;	????	
     6a2:	00 00       	.word	0x0000;	????	
     6a4:	01 5e       	add	r14,	r1	
     6a6:	14 f2 00 00 	and	&0x0000,r4	
     6aa:	00 01       	.word	0x0100;	????	
     6ac:	44 fd       	and.b	r13,	r4	
     6ae:	00 00       	.word	0x0000;	????	
     6b0:	00 01       	.word	0x0100;	????	
     6b2:	5d 11 69 00 	rra.b	105(r13)	;0x0069(r13)
     6b6:	01 46       	mov	r6,	r1	
     6b8:	f6 00       	.word	0x00f6;	????	
     6ba:	00 00       	.word	0x0000;	????	
     6bc:	ec 01       	.word	0x01ec;	????	
     6be:	00 00       	.word	0x0000;	????	
     6c0:	11 6a 00 01 	addc	256(r10),r1	;0x0100(r10)
     6c4:	47 f6       	and.b	r6,	r7	
     6c6:	00 00       	.word	0x0000;	????	
     6c8:	00 ff       	and	r15,	r0	
     6ca:	01 00       	.word	0x0001;	????	
     6cc:	00 16       	.word	0x1600;	????	
     6ce:	0f 02       	.word	0x020f;	????	
     6d0:	00 00       	.word	0x0000;	????	
     6d2:	01 48       	mov	r8,	r1	
     6d4:	f6 00       	.word	0x00f6;	????	
     6d6:	00 00       	.word	0x0000;	????	
     6d8:	0a 02       	.word	0x020a;	????	
     6da:	00 00       	.word	0x0000;	????	
     6dc:	16 de 01 00 	bis	1(r14),	r6	;0x0001(r14)
     6e0:	00 01       	.word	0x0100;	????	
     6e2:	49 f6       	and.b	r6,	r9	
     6e4:	00 00       	.word	0x0000;	????	
     6e6:	00 24       	jz	$+2      	;abs 0x6e8
     6e8:	02 00       	.word	0x0002;	????	
     6ea:	00 00       	.word	0x0000;	????	
     6ec:	12 01       	.word	0x0112;	????	
     6ee:	6c 02       	.word	0x026c;	????	
     6f0:	00 00       	.word	0x0000;	????	
     6f2:	01 68       	addc	r8,	r1	
     6f4:	01 f6       	and	r6,	r1	
     6f6:	00 00       	.word	0x0000;	????	
     6f8:	00 8e       	sub	r14,	r0	
     6fa:	c4 1e       	.word	0x1ec4;	????	
     6fc:	c5 37       	jge	$-116    	;abs 0x688
     6fe:	02 00       	.word	0x0002;	????	
     700:	00 38       	jl	$+2      	;abs 0x702
     702:	03 00       	.word	0x0003;	????	
     704:	00 13       	reti			
     706:	b9 00       	.word	0x00b9;	????	
     708:	00 00       	.word	0x0000;	????	
     70a:	01 68       	addc	r8,	r1	
     70c:	38 03       	.word	0x0338;	????	
     70e:	00 00       	.word	0x0000;	????	
     710:	7c 02       	.word	0x027c;	????	
     712:	00 00       	.word	0x0000;	????	
     714:	13 a7       	.word	0xa713;	????	Illegal as 2-op instr
     716:	00 00       	.word	0x0000;	????	
     718:	00 01       	.word	0x0100;	????	
     71a:	68 88       	sub.b	@r8,	r8	
     71c:	01 00       	.word	0x0001;	????	
     71e:	00 8e       	sub	r14,	r0	
     720:	02 00       	.word	0x0002;	????	
     722:	00 11       	rra	r0		
     724:	69 00       	.word	0x0069;	????	
     726:	01 6a       	addc	r10,	r1	
     728:	f6 00       	.word	0x00f6;	????	
     72a:	00 00       	.word	0x0000;	????	
     72c:	a0 02       	.word	0x02a0;	????	
     72e:	00 00       	.word	0x0000;	????	
     730:	11 72 65 74 	subc	&0x7465,r1	
     734:	00 01       	.word	0x0100;	????	
     736:	6b f6       	and.b	@r6,	r11	
     738:	00 00       	.word	0x0000;	????	
     73a:	00 b3       	bit	#0,	r0	;r3 As==00
     73c:	02 00       	.word	0x0002;	????	
     73e:	00 16       	.word	0x1600;	????	
     740:	14 02       	.word	0x0214;	????	
     742:	00 00       	.word	0x0000;	????	
     744:	01 6c       	addc	r12,	r1	
     746:	f6 00       	.word	0x00f6;	????	
     748:	00 00       	.word	0x0000;	????	
     74a:	cc 02       	.word	0x02cc;	????	
     74c:	00 00       	.word	0x0000;	????	
     74e:	16 f4 01 00 	and	1(r4),	r6	;0x0001(r4)
     752:	00 01       	.word	0x0100;	????	
     754:	6d f6       	and.b	@r6,	r13	
     756:	00 00       	.word	0x0000;	????	
     758:	00 de       	bis	r14,	r0	
     75a:	02 00       	.word	0x0002;	????	
     75c:	00 17       	.word	0x1700;	????	
     75e:	f2 00       	.word	0x00f2;	????	
     760:	00 00       	.word	0x0000;	????	
     762:	01 6f       	addc	r15,	r1	
     764:	9d 00       	.word	0x009d;	????	
     766:	00 00       	.word	0x0000;	????	
     768:	03 91       	.word	0x9103;	????	Illegal as 2-op instr
     76a:	a0 7f 00 09 	subc	@r15,	2304(r0);PC rel. 0x106c
     76e:	02 48       	mov	r8,	r2	
     770:	01 00       	.word	0x0001;	????	
     772:	00 00       	.word	0x0000;	????	
     774:	50 02       	.word	0x0250;	????	
     776:	00 00       	.word	0x0000;	????	
     778:	02 00       	.word	0x0002;	????	
     77a:	67 02       	.word	0x0267;	????	
     77c:	00 00       	.word	0x0000;	????	
     77e:	02 01       	.word	0x0102;	????	
     780:	4b 01       	.word	0x014b;	????	
     782:	00 00       	.word	0x0000;	????	
     784:	01 e0       	xor	r0,	r1	
     786:	02 00       	.word	0x0002;	????	
     788:	00 f9       	and	r9,	r0	
     78a:	02 00       	.word	0x0002;	????	
     78c:	00 1e       	.word	0x1e00;	????	
     78e:	c5 88 c7 27 	sub.b	r8,	10183(r5);0x27c7(r5)
     792:	03 00       	.word	0x0003;	????	
     794:	00 02       	.word	0x0200;	????	
     796:	2c 03       	.word	0x032c;	????	
     798:	00 00       	.word	0x0000;	????	
     79a:	02 28       	jnc	$+6      	;abs 0x7a0
     79c:	2c 00       	.word	0x002c;	????	
     79e:	00 00       	.word	0x0000;	????	
     7a0:	03 02       	.word	0x0203;	????	
     7a2:	aa 02       	.word	0x02aa;	????	
     7a4:	00 00       	.word	0x0000;	????	
     7a6:	02 33       	jn	$-506    	;abs 0x5ac
     7a8:	03 00       	.word	0x0003;	????	
     7aa:	00 02       	.word	0x0200;	????	
     7ac:	66 21       	jnz	$+718    	;abs 0xa7a
     7ae:	00 00       	.word	0x0000;	????	
     7b0:	00 04       	.word	0x0400;	????	
     7b2:	c7 02       	.word	0x02c7;	????	
     7b4:	00 00       	.word	0x0000;	????	
     7b6:	01 59       	add	r9,	r1	
     7b8:	01 1e       	.word	0x1e01;	????	
     7ba:	c5 88 c5 f7 	sub.b	r8,	-2107(r5);0xf7c5(r5)
     7be:	02 00       	.word	0x0002;	????	
     7c0:	00 87       	sub	r7,	r0	
     7c2:	00 00       	.word	0x0000;	????	
     7c4:	00 05       	.word	0x0500;	????	
     7c6:	78 00       	.word	0x0078;	????	
     7c8:	01 59       	add	r9,	r1	
     7ca:	87 00       	.word	0x0087;	????	
     7cc:	00 00       	.word	0x0000;	????	
     7ce:	2b 03       	.word	0x032b;	????	
     7d0:	00 00       	.word	0x0000;	????	
     7d2:	05 64       	addc	r4,	r5	
     7d4:	70 00       	.word	0x0070;	????	
     7d6:	01 59       	add	r9,	r1	
     7d8:	8e 00       	.word	0x008e;	????	
     7da:	00 00       	.word	0x0000;	????	
     7dc:	47 03       	.word	0x0347;	????	
     7de:	00 00       	.word	0x0000;	????	
     7e0:	06 63       	adc	r6		
     7e2:	00 01       	.word	0x0100;	????	
     7e4:	5b 99 00 00 	cmp.b	0(r9),	r11	;0x0000(r9)
     7e8:	00 59       	add	r9,	r0	
     7ea:	03 00       	.word	0x0003;	????	
     7ec:	00 06       	.word	0x0600;	????	
     7ee:	64 00       	.word	0x0064;	????	
     7f0:	01 5c       	add	r12,	r1	
     7f2:	87 00       	.word	0x0087;	????	
     7f4:	00 00       	.word	0x0000;	????	
     7f6:	6d 03       	.word	0x036d;	????	
     7f8:	00 00       	.word	0x0000;	????	
     7fa:	00 07       	.word	0x0700;	????	
     7fc:	04 07       	.word	0x0704;	????	
     7fe:	2f 04       	.word	0x042f;	????	
     800:	00 00       	.word	0x0000;	????	
     802:	08 02       	.word	0x0208;	????	
     804:	94 00       	.word	0x0094;	????	
     806:	00 00       	.word	0x0000;	????	
     808:	09 87       	sub	r7,	r9	
     80a:	00 00       	.word	0x0000;	????	
     80c:	00 07       	.word	0x0700;	????	
     80e:	01 06       	.word	0x0601;	????	
     810:	5e 00       	.word	0x005e;	????	
     812:	00 00       	.word	0x0000;	????	
     814:	0a da       	bis	r10,	r10	
     816:	02 00       	.word	0x0002;	????	
     818:	00 01       	.word	0x0100;	????	
     81a:	53 01       	.word	0x0153;	????	
     81c:	88 c5 96 c5 	bic	r5,	-14954(r8);0xc596(r8)
     820:	02 71       	subc	r1,	r2	
     822:	02 d0       	bis	r0,	r2	
     824:	00 00       	.word	0x0000;	????	
     826:	00 05       	.word	0x0500;	????	
     828:	6e 00       	.word	0x006e;	????	
     82a:	01 53       	add	#0,	r1	;r3 As==00
     82c:	d0 00       	.word	0x00d0;	????	
     82e:	00 00       	.word	0x0000;	????	
     830:	85 03       	.word	0x0385;	????	
     832:	00 00       	.word	0x0000;	????	
     834:	0b 68       	addc	r8,	r11	
     836:	65 78       	subc.b	@r8,	r5	
     838:	00 01       	.word	0x0100;	????	
     83a:	55 e7 00 00 	xor.b	0(r7),	r5	;0x0000(r7)
     83e:	00 03       	.word	0x0300;	????	
     840:	03 ea       	.word	0xea03;	????	Illegal as 2-op instr
     842:	ca 00       	.word	0x00ca;	????	
     844:	07 02       	.word	0x0207;	????	
     846:	07 34       	jge	$+16     	;abs 0x856
     848:	04 00       	.word	0x0004;	????	
     84a:	00 0c       	.word	0x0c00;	????	
     84c:	99 00       	.word	0x0099;	????	
     84e:	00 00       	.word	0x0000;	????	
     850:	e7 00       	.word	0x00e7;	????	
     852:	00 00       	.word	0x0000;	????	
     854:	0d d0       	bis	r0,	r13	
     856:	00 00       	.word	0x0000;	????	
     858:	00 0f       	.word	0x0f00;	????	
     85a:	00 09       	.word	0x0900;	????	
     85c:	d7 00       	.word	0x00d7;	????	
     85e:	00 00       	.word	0x0000;	????	
     860:	0e 01       	.word	0x010e;	????	
     862:	ef 02       	.word	0x02ef;	????	
     864:	00 00       	.word	0x0000;	????	
     866:	01 18       	.word	0x1801;	????	
     868:	01 96       	cmp	r6,	r1	
     86a:	c5 aa c5 90 	dadd.b	r10,	-28475(r5);0x90c5(r5)
     86e:	03 00       	.word	0x0003;	????	
     870:	00 1e       	.word	0x1e00;	????	
     872:	01 00       	.word	0x0001;	????	
     874:	00 0f       	.word	0x0f00;	????	
     876:	ab 00       	.word	0x00ab;	????	
     878:	00 00       	.word	0x0000;	????	
     87a:	01 18       	.word	0x1801;	????	
     87c:	1e 01       	.word	0x011e;	????	
     87e:	00 00       	.word	0x0000;	????	
     880:	a4 03       	.word	0x03a4;	????	
     882:	00 00       	.word	0x0000;	????	
     884:	06 69       	addc	r9,	r6	
     886:	00 01       	.word	0x0100;	????	
     888:	1a 24       	jz	$+54     	;abs 0x8be
     88a:	01 00       	.word	0x0001;	????	
     88c:	00 af       	dadd	r15,	r0	
     88e:	03 00       	.word	0x0003;	????	
     890:	00 00       	.word	0x0000;	????	
     892:	08 02       	.word	0x0208;	????	
     894:	99 00       	.word	0x0099;	????	
     896:	00 00       	.word	0x0000;	????	
     898:	10 02       	.word	0x0210;	????	
     89a:	05 69       	addc	r9,	r5	
     89c:	6e 74       	subc.b	@r4,	r14	
     89e:	00 0e       	.word	0x0e00;	????	
     8a0:	01 bc       	bit	r12,	r1	
     8a2:	02 00       	.word	0x0002;	????	
     8a4:	00 01       	.word	0x0100;	????	
     8a6:	21 01       	.word	0x0121;	????	
     8a8:	aa c5 24 c6 	bic	@r5,	-14812(r10);0xc624(r10)
     8ac:	bb 03       	.word	0x03bb;	????	
     8ae:	00 00       	.word	0x0000;	????	
     8b0:	76 01       	.word	0x0176;	????	
     8b2:	00 00       	.word	0x0000;	????	
     8b4:	05 6e       	addc	r14,	r5	
     8b6:	00 01       	.word	0x0100;	????	
     8b8:	21 24       	jz	$+68     	;abs 0x8fc
     8ba:	01 00       	.word	0x0001;	????	
     8bc:	00 e7       	xor	r7,	r0	
     8be:	03 00       	.word	0x0003;	????	
     8c0:	00 11       	rra	r0		
     8c2:	3b 03       	.word	0x033b;	????	
     8c4:	00 00       	.word	0x0000;	????	
     8c6:	01 23       	jnz	$-508    	;abs 0x6ca
     8c8:	76 01       	.word	0x0176;	????	
     8ca:	00 00       	.word	0x0000;	????	
     8cc:	02 91       	cmp	r1,	r2	
     8ce:	58 06       	.word	0x0658;	????	
     8d0:	69 00       	.word	0x0069;	????	
     8d2:	01 24       	jz	$+4      	;abs 0x8d6
     8d4:	24 01       	.word	0x0124;	????	
     8d6:	00 00       	.word	0x0000;	????	
     8d8:	0e 04       	.word	0x040e;	????	
     8da:	00 00       	.word	0x0000;	????	
     8dc:	06 6a       	addc	r10,	r6	
     8de:	00 01       	.word	0x0100;	????	
     8e0:	25 24       	jz	$+76     	;abs 0x92c
     8e2:	01 00       	.word	0x0001;	????	
     8e4:	00 19       	.word	0x1900;	????	
     8e6:	04 00       	.word	0x0004;	????	
     8e8:	00 00       	.word	0x0000;	????	
     8ea:	0c 24       	jz	$+26     	;abs 0x904
     8ec:	01 00       	.word	0x0001;	????	
     8ee:	00 86       	sub	r6,	r0	
     8f0:	01 00       	.word	0x0001;	????	
     8f2:	00 0d       	.word	0x0d00;	????	
     8f4:	d0 00       	.word	0x00d0;	????	
     8f6:	00 00       	.word	0x0000;	????	
     8f8:	0f 00       	.word	0x000f;	????	
     8fa:	0e 01       	.word	0x010e;	????	
     8fc:	94 02       	.word	0x0294;	????	
     8fe:	00 00       	.word	0x0000;	????	
     900:	01 36       	jge	$-1020   	;abs 0x504
     902:	01 24       	jz	$+4      	;abs 0x906
     904:	c6 5e c6 26 	add.b	r14,	9926(r6);0x26c6(r6)
     908:	04 00       	.word	0x0004;	????	
     90a:	00 c5       	bic	r5,	r0	
     90c:	01 00       	.word	0x0001;	????	
     90e:	00 05       	.word	0x0500;	????	
     910:	6e 00       	.word	0x006e;	????	
     912:	01 36       	jge	$-1020   	;abs 0x516
     914:	24 01       	.word	0x0124;	????	
     916:	00 00       	.word	0x0000;	????	
     918:	42 04       	.word	0x0442;	????	
     91a:	00 00       	.word	0x0000;	????	
     91c:	0f d5       	bis	r5,	r15	
     91e:	02 00       	.word	0x0002;	????	
     920:	00 01       	.word	0x0100;	????	
     922:	36 24       	jz	$+110    	;abs 0x990
     924:	01 00       	.word	0x0001;	????	
     926:	00 54       	add	r4,	r0	
     928:	04 00       	.word	0x0004;	????	
     92a:	00 06       	.word	0x0600;	????	
     92c:	69 00       	.word	0x0069;	????	
     92e:	01 38       	jl	$+4      	;abs 0x932
     930:	24 01       	.word	0x0124;	????	
     932:	00 00       	.word	0x0000;	????	
     934:	5f 04       	.word	0x045f;	????	
     936:	00 00       	.word	0x0000;	????	
     938:	00 0e       	.word	0x0e00;	????	
     93a:	01 9f       	cmp	r15,	r1	
     93c:	02 00       	.word	0x0002;	????	
     93e:	00 01       	.word	0x0100;	????	
     940:	6a 01       	.word	0x016a;	????	
     942:	5e c6 88 c7 	bic.b	-14456(r6),r14	;0xc788(r6)
     946:	71 04       	.word	0x0471;	????	
     948:	00 00       	.word	0x0000;	????	
     94a:	28 02       	.word	0x0228;	????	
     94c:	00 00       	.word	0x0000;	????	
     94e:	0f e8       	xor	r8,	r15	
     950:	02 00       	.word	0x0002;	????	
     952:	00 01       	.word	0x0100;	????	
     954:	6a 1e       	.word	0x1e6a;	????	
     956:	01 00       	.word	0x0001;	????	
     958:	00 9d       	cmp	r13,	r0	
     95a:	04 00       	.word	0x0004;	????	
     95c:	00 12       	push	r0		
     95e:	06 63       	adc	r6		
     960:	00 01       	.word	0x0100;	????	
     962:	6c 99       	cmp.b	@r9,	r12	
     964:	00 00       	.word	0x0000;	????	
     966:	00 d2       	bis	r2,	r0	
     968:	04 00       	.word	0x0004;	????	
     96a:	00 06       	.word	0x0600;	????	
     96c:	69 00       	.word	0x0069;	????	
     96e:	01 6d       	addc	r13,	r1	
     970:	24 01       	.word	0x0124;	????	
     972:	00 00       	.word	0x0000;	????	
     974:	3f 05       	.word	0x053f;	????	
     976:	00 00       	.word	0x0000;	????	
     978:	06 6e       	addc	r14,	r6	
     97a:	00 01       	.word	0x0100;	????	
     97c:	6e 28       	jnc	$+222    	;abs 0xa5a
     97e:	02 00       	.word	0x0002;	????	
     980:	00 61       	addc	r1,	r0	
     982:	05 00       	.word	0x0005;	????	
     984:	00 06       	.word	0x0600;	????	
     986:	61 00       	.word	0x0061;	????	
     988:	01 70       	subc	r0,	r1	
     98a:	32 00       	.word	0x0032;	????	
     98c:	00 00       	.word	0x0000;	????	
     98e:	8c 05       	.word	0x058c;	????	
     990:	00 00       	.word	0x0000;	????	
     992:	13 cd       	.word	0xcd13;	????	Illegal as 2-op instr
     994:	02 00       	.word	0x0002;	????	
     996:	00 01       	.word	0x0100;	????	
     998:	95 74 c7 00 	subc	199(r4),1031(r5);0x00c7(r4), 0x0407(r5)
     99c:	07 04 
     99e:	05 5e       	add	r14,	r5	
     9a0:	04 00       	.word	0x0004;	????	
     9a2:	00 0c       	.word	0x0c00;	????	
     9a4:	87 00       	.word	0x0087;	????	
     9a6:	00 00       	.word	0x0000;	????	
     9a8:	3f 02       	.word	0x023f;	????	
     9aa:	00 00       	.word	0x0000;	????	
     9ac:	0d d0       	bis	r0,	r13	
     9ae:	00 00       	.word	0x0000;	????	
     9b0:	00 09       	.word	0x0900;	????	
     9b2:	00 0b       	.word	0x0b00;	????	
     9b4:	5f 64 76 00 	addc.b	118(r4),r15	;0x0076(r4)
     9b8:	01 44       	mov	r4,	r1	
     9ba:	4e 02       	.word	0x024e;	????	
     9bc:	00 00       	.word	0x0000;	????	
     9be:	03 03       	.word	0x0303;	????	
     9c0:	c2 ca 09 2f 	bic.b	r10,	&0x2f09	
     9c4:	02 00       	.word	0x0002;	????	
     9c6:	00 00       	.word	0x0000;	????	
     9c8:	5a 00       	.word	0x005a;	????	
     9ca:	00 00       	.word	0x0000;	????	
     9cc:	02 00       	.word	0x0002;	????	
     9ce:	67 03       	.word	0x0367;	????	
     9d0:	00 00       	.word	0x0000;	????	
     9d2:	02 01       	.word	0x0102;	????	
     9d4:	4b 01       	.word	0x014b;	????	
     9d6:	00 00       	.word	0x0000;	????	
     9d8:	01 56       	add	r6,	r1	
     9da:	03 00       	.word	0x0003;	????	
     9dc:	00 f9       	and	r9,	r0	
     9de:	02 00       	.word	0x0002;	????	
     9e0:	00 88       	sub	r8,	r0	
     9e2:	c7 94 c7 89 	cmp.b	r4,	-30265(r7);0x89c7(r7)
     9e6:	04 00       	.word	0x0004;	????	
     9e8:	00 02       	.word	0x0200;	????	
     9ea:	01 4b       	mov	r11,	r1	
     9ec:	03 00       	.word	0x0003;	????	
     9ee:	00 01       	.word	0x0100;	????	
     9f0:	17 01       	.word	0x0117;	????	
     9f2:	88 c7 8e c7 	bic	r7,	-14450(r8);0xc78e(r8)
     9f6:	02 71       	subc	r1,	r2	
     9f8:	02 43       	clr	r2		
     9fa:	00 00       	.word	0x0000;	????	
     9fc:	00 03       	.word	0x0300;	????	
     9fe:	63 00       	.word	0x0063;	????	
     a00:	01 17       	.word	0x1701;	????	
     a02:	43 00       	.word	0x0043;	????	
     a04:	00 00       	.word	0x0000;	????	
     a06:	dd 05       	.word	0x05dd;	????	
     a08:	00 00       	.word	0x0000;	????	
     a0a:	00 04       	.word	0x0400;	????	
     a0c:	01 06       	.word	0x0601;	????	
     a0e:	5e 00       	.word	0x005e;	????	
     a10:	00 00       	.word	0x0000;	????	
     a12:	05 01       	.word	0x0105;	????	
     a14:	42 03       	.word	0x0342;	????	
     a16:	00 00       	.word	0x0000;	????	
     a18:	01 1c       	.word	0x1c01;	????	
     a1a:	43 00       	.word	0x0043;	????	
     a1c:	00 00       	.word	0x0000;	????	
     a1e:	8e c7 94 c7 	bic	r7,	-14444(r14);0xc794(r14)
     a22:	02 71       	subc	r1,	r2	
     a24:	02 00       	.word	0x0002;	????	
     a26:	c3 01       	.word	0x01c3;	????	
     a28:	00 00       	.word	0x0000;	????	
     a2a:	02 00       	.word	0x0002;	????	
     a2c:	c1 03       	.word	0x03c1;	????	
     a2e:	00 00       	.word	0x0000;	????	
     a30:	02 01       	.word	0x0102;	????	
     a32:	4b 01       	.word	0x014b;	????	
     a34:	00 00       	.word	0x0000;	????	
     a36:	01 83       	sub	#0,	r1	;r3 As==00
     a38:	03 00       	.word	0x0003;	????	
     a3a:	00 e6       	xor	r6,	r0	
     a3c:	03 00       	.word	0x0003;	????	
     a3e:	00 94       	cmp	r4,	r0	
     a40:	c7 f6 c8 ca 	and.b	r6,	-13624(r7);0xcac8(r7)
     a44:	04 00       	.word	0x0004;	????	
     a46:	00 02       	.word	0x0200;	????	
     a48:	02 07       	.word	0x0702;	????	
     a4a:	34 04       	.word	0x0434;	????	
     a4c:	00 00       	.word	0x0000;	????	
     a4e:	02 01       	.word	0x0102;	????	
     a50:	06 57       	add	r7,	r6	
     a52:	00 00       	.word	0x0000;	????	
     a54:	00 03       	.word	0x0300;	????	
     a56:	02 05       	.word	0x0502;	????	
     a58:	69 6e       	addc.b	@r14,	r9	
     a5a:	74 00       	.word	0x0074;	????	
     a5c:	02 04       	.word	0x0402;	????	
     a5e:	05 5e       	add	r14,	r5	
     a60:	04 00       	.word	0x0004;	????	
     a62:	00 02       	.word	0x0200;	????	
     a64:	08 05       	.word	0x0508;	????	
     a66:	59 04       	.word	0x0459;	????	
     a68:	00 00       	.word	0x0000;	????	
     a6a:	02 01       	.word	0x0102;	????	
     a6c:	08 55       	add	r5,	r8	
     a6e:	00 00       	.word	0x0000;	????	
     a70:	00 02       	.word	0x0200;	????	
     a72:	04 07       	.word	0x0704;	????	
     a74:	2f 04       	.word	0x042f;	????	
     a76:	00 00       	.word	0x0000;	????	
     a78:	02 08       	.word	0x0802;	????	
     a7a:	07 2a       	jnc	$-1008   	;abs 0x68a
     a7c:	04 00       	.word	0x0004;	????	
     a7e:	00 04       	.word	0x0400;	????	
     a80:	01 1a       	.word	0x1a01;	????	
     a82:	04 00       	.word	0x0004;	????	
     a84:	00 01       	.word	0x0100;	????	
     a86:	2a 01       	.word	0x012a;	????	
     a88:	94 c7 be c8 	bic	-14146(r7),28930(r4);0xc8be(r7), 0x7102(r4)
     a8c:	02 71 
     a8e:	02 8d       	sub	r13,	r2	
     a90:	00 00       	.word	0x0000;	????	
     a92:	00 05       	.word	0x0500;	????	
     a94:	65 03       	.word	0x0365;	????	
     a96:	00 00       	.word	0x0000;	????	
     a98:	01 2a       	jnc	$-1020   	;abs 0x69c
     a9a:	36 00       	.word	0x0036;	????	
     a9c:	00 00       	.word	0x0000;	????	
     a9e:	06 5e       	add	r14,	r6	
     aa0:	93 02       	.word	0x0293;	????	
     aa2:	5f 93       	cmp.b	#1,	r15	;r3 As==01
     aa4:	02 05       	.word	0x0502;	????	
     aa6:	dd 03       	.word	0x03dd;	????	
     aa8:	00 00       	.word	0x0000;	????	
     aaa:	01 2a       	jnc	$-1020   	;abs 0x6ae
     aac:	21 00       	.word	0x0021;	????	
     aae:	00 00       	.word	0x0000;	????	
     ab0:	01 5d       	add	r13,	r1	
     ab2:	00 04       	.word	0x0400;	????	
     ab4:	01 4d       	mov	r13,	r1	
     ab6:	04 00       	.word	0x0004;	????	
     ab8:	00 01       	.word	0x0100;	????	
     aba:	25 01       	.word	0x0125;	????	
     abc:	be c8 ce c8 	bic	@r8+,	-14130(r14);0xc8ce(r14)
     ac0:	02 71       	subc	r1,	r2	
     ac2:	02 b1       	bit	r1,	r2	
     ac4:	00 00       	.word	0x0000;	????	
     ac6:	00 06       	.word	0x0600;	????	
     ac8:	dd 03       	.word	0x03dd;	????	
     aca:	00 00       	.word	0x0000;	????	
     acc:	01 25       	jz	$+516    	;abs 0xcd0
     ace:	21 00       	.word	0x0021;	????	
     ad0:	00 00       	.word	0x0000;	????	
     ad2:	e8 05       	.word	0x05e8;	????	
     ad4:	00 00       	.word	0x0000;	????	
     ad6:	00 04       	.word	0x0400;	????	
     ad8:	01 bb       	bit	r11,	r1	
     ada:	03 00       	.word	0x0003;	????	
     adc:	00 01       	.word	0x0100;	????	
     ade:	5d 01       	.word	0x015d;	????	
     ae0:	ce c8 d4 c8 	bic.b	r8,	-14124(r14);0xc8d4(r14)
     ae4:	02 71       	subc	r1,	r2	
     ae6:	02 d3       	bis	#0,	r2	;r3 As==00
     ae8:	00 00       	.word	0x0000;	????	
     aea:	00 05       	.word	0x0500;	????	
     aec:	d8 03       	.word	0x03d8;	????	
     aee:	00 00       	.word	0x0000;	????	
     af0:	01 5d       	add	r13,	r1	
     af2:	44 00       	.word	0x0044;	????	
     af4:	00 00       	.word	0x0000;	????	
     af6:	01 5f       	add	r15,	r1	
     af8:	00 04       	.word	0x0400;	????	
     afa:	01 72       	subc	r2,	r1	
     afc:	04 00       	.word	0x0004;	????	
     afe:	00 01       	.word	0x0100;	????	
     b00:	62 01       	.word	0x0162;	????	
     b02:	d4 c8 e2 c8 	bic.b	-14110(r8),28930(r4);0xc8e2(r8), 0x7102(r4)
     b06:	02 71 
     b08:	02 f5       	and	r5,	r2	
     b0a:	00 00       	.word	0x0000;	????	
     b0c:	00 05       	.word	0x0500;	????	
     b0e:	d8 03       	.word	0x03d8;	????	
     b10:	00 00       	.word	0x0000;	????	
     b12:	01 62       	addc	r2,	r1	
     b14:	44 00       	.word	0x0044;	????	
     b16:	00 00       	.word	0x0000;	????	
     b18:	01 5f       	add	r15,	r1	
     b1a:	00 07       	.word	0x0700;	????	
     b1c:	01 af       	dadd	r15,	r1	
     b1e:	03 00       	.word	0x0003;	????	
     b20:	00 01       	.word	0x0100;	????	
     b22:	68 44       	mov.b	@r4,	r8	
     b24:	00 00       	.word	0x0000;	????	
     b26:	00 e2       	xor	r2,	r0	
     b28:	c8 e8 c8 02 	xor.b	r8,	712(r8)	;0x02c8(r8)
     b2c:	71 02       	.word	0x0271;	????	
     b2e:	07 01       	.word	0x0107;	????	
     b30:	6e 03       	.word	0x036e;	????	
     b32:	00 00       	.word	0x0000;	????	
     b34:	01 6d       	addc	r13,	r1	
     b36:	44 00       	.word	0x0044;	????	
     b38:	00 00       	.word	0x0000;	????	
     b3a:	e8 c8 f6 c8 	bic.b	@r8,	-14090(r8);0xc8f6(r8)
     b3e:	02 71       	subc	r1,	r2	
     b40:	02 08       	.word	0x0802;	????	
     b42:	89 04       	.word	0x0489;	????	
     b44:	00 00       	.word	0x0000;	????	
     b46:	02 a0       	dadd	r0,	r2	
     b48:	87 04       	.word	0x0487;	????	
     b4a:	00 00       	.word	0x0000;	????	
     b4c:	2c 01       	.word	0x012c;	????	
     b4e:	00 00       	.word	0x0000;	????	
     b50:	01 01       	.word	0x0101;	????	
     b52:	09 44       	mov	r4,	r9	
     b54:	00 00       	.word	0x0000;	????	
     b56:	00 0a       	.word	0x0a00;	????	
     b58:	d2 03       	.word	0x03d2;	????	
     b5a:	00 00       	.word	0x0000;	????	
     b5c:	02 e4       	xor	r4,	r2	
     b5e:	01 d0       	bis	r0,	r1	
     b60:	03 00       	.word	0x0003;	????	
     b62:	00 2c       	jc	$+2      	;abs 0xb64
     b64:	01 00       	.word	0x0001;	????	
     b66:	00 01       	.word	0x0100;	????	
     b68:	01 0a       	.word	0x0a01;	????	
     b6a:	c9 03       	.word	0x03c9;	????	
     b6c:	00 00       	.word	0x0000;	????	
     b6e:	02 e6       	xor	r6,	r2	
     b70:	01 c7       	bic	r7,	r1	
     b72:	03 00       	.word	0x0003;	????	
     b74:	00 2c       	jc	$+2      	;abs 0xb76
     b76:	01 00       	.word	0x0001;	????	
     b78:	00 01       	.word	0x0100;	????	
     b7a:	01 0a       	.word	0x0a01;	????	
     b7c:	a6 03       	.word	0x03a6;	????	
     b7e:	00 00       	.word	0x0000;	????	
     b80:	02 b3       	bit	#0,	r2	;r3 As==00
     b82:	02 a4       	dadd	r4,	r2	
     b84:	03 00       	.word	0x0003;	????	
     b86:	00 2c       	jc	$+2      	;abs 0xb88
     b88:	01 00       	.word	0x0001;	????	
     b8a:	00 01       	.word	0x0100;	????	
     b8c:	01 0a       	.word	0x0a01;	????	
     b8e:	90 04       	.word	0x0490;	????	
     b90:	00 00       	.word	0x0000;	????	
     b92:	02 b5       	bit	r5,	r2	
     b94:	02 8e       	sub	r14,	r2	
     b96:	04 00       	.word	0x0004;	????	
     b98:	00 2c       	jc	$+2      	;abs 0xb9a
     b9a:	01 00       	.word	0x0001;	????	
     b9c:	00 01       	.word	0x0100;	????	
     b9e:	01 0a       	.word	0x0a01;	????	
     ba0:	9a 04       	.word	0x049a;	????	
     ba2:	00 00       	.word	0x0000;	????	
     ba4:	02 b7       	bit	r7,	r2	
     ba6:	02 98       	cmp	r8,	r2	
     ba8:	04 00       	.word	0x0004;	????	
     baa:	00 2c       	jc	$+2      	;abs 0xbac
     bac:	01 00       	.word	0x0001;	????	
     bae:	00 01       	.word	0x0100;	????	
     bb0:	01 0a       	.word	0x0a01;	????	
     bb2:	69 04       	.word	0x0469;	????	
     bb4:	00 00       	.word	0x0000;	????	
     bb6:	02 b9       	bit	r9,	r2	
     bb8:	02 67       	addc	r7,	r2	
     bba:	04 00       	.word	0x0004;	????	
     bbc:	00 2c       	jc	$+2      	;abs 0xbbe
     bbe:	01 00       	.word	0x0001;	????	
     bc0:	00 01       	.word	0x0100;	????	
     bc2:	01 0a       	.word	0x0a01;	????	
     bc4:	9a 03       	.word	0x039a;	????	
     bc6:	00 00       	.word	0x0000;	????	
     bc8:	02 bd       	bit	r13,	r2	
     bca:	02 98       	cmp	r8,	r2	
     bcc:	03 00       	.word	0x0003;	????	
     bce:	00 af       	dadd	r15,	r0	
     bd0:	01 00       	.word	0x0001;	????	
     bd2:	00 01       	.word	0x0100;	????	
     bd4:	01 0b       	.word	0x0b01;	????	
     bd6:	2c 01       	.word	0x012c;	????	
     bd8:	00 00       	.word	0x0000;	????	
     bda:	0a 43       	clr	r10		
     bdc:	04 00       	.word	0x0004;	????	
     bde:	00 02       	.word	0x0200;	????	
     be0:	bf 02       	.word	0x02bf;	????	
     be2:	41 04       	.word	0x0441;	????	
     be4:	00 00       	.word	0x0000;	????	
     be6:	2c 01       	.word	0x012c;	????	
     be8:	00 00       	.word	0x0000;	????	
     bea:	01 01       	.word	0x0101;	????	
     bec:	00 84       	sub	r4,	r0	
     bee:	00 00       	.word	0x0000;	????	
     bf0:	00 02       	.word	0x0200;	????	
     bf2:	00 6b       	addc	r11,	r0	
     bf4:	04 00       	.word	0x0004;	????	
     bf6:	00 02       	.word	0x0200;	????	
     bf8:	01 e2       	xor	r2,	r1	
     bfa:	05 00       	.word	0x0005;	????	
     bfc:	00 f6       	and	r6,	r0	
     bfe:	c8 30       	jn	$+402    	;abs 0xd90
     c00:	c9 2e       	jc	$-620    	;abs 0x994
     c02:	2e 2f       	jc	$-418    	;abs 0xa60
     c04:	2e 2e       	jc	$-930    	;abs 0x862
     c06:	2f 2e       	jc	$-928    	;abs 0x866
     c08:	2e 2f       	jc	$-418    	;abs 0xa66
     c0a:	2e 2e       	jc	$-930    	;abs 0x868
     c0c:	2f 67       	addc	@r7,	r15	
     c0e:	63 63       	.word	0x6363;	????	Illegal as 2-op instr
     c10:	2f 6c       	addc	@r12,	r15	
     c12:	69 62       	addc.b	#4,	r9	;r2 As==10
     c14:	67 63       	addc.b	#2,	r7	;r3 As==10
     c16:	63 2f       	jc	$-312    	;abs 0xade
     c18:	2e 2e       	jc	$-930    	;abs 0x876
     c1a:	2f 67       	addc	@r7,	r15	
     c1c:	63 63       	.word	0x6363;	????	Illegal as 2-op instr
     c1e:	2f 63       	addc	#2,	r15	;r3 As==10
     c20:	6f 6e       	addc.b	@r14,	r15	
     c22:	66 69       	addc.b	@r9,	r6	
     c24:	67 2f       	jc	$-304    	;abs 0xaf4
     c26:	6d 73       	subc.b	#2,	r13	;r3 As==10
     c28:	70 34       	jge	$+226    	;abs 0xd0a
     c2a:	33 30       	jn	$+104    	;abs 0xc92
     c2c:	2f 6c       	addc	@r12,	r15	
     c2e:	69 62       	addc.b	#4,	r9	;r2 As==10
     c30:	67 63       	addc.b	#2,	r7	;r3 As==10
     c32:	63 2e       	jc	$-824    	;abs 0x8fa
     c34:	53 00       	.word	0x0053;	????	
     c36:	2f 55       	add	@r5,	r15	
     c38:	73 65       	.word	0x6573;	????	Illegal as 2-op instr
     c3a:	72 73       	subc.b	#-1,	r2	;r3 As==11
     c3c:	2f 72       	subc	#4,	r15	;r2 As==10
     c3e:	77 65       	addc.b	@r5+,	r7	
     c40:	73 73       	.word	0x7373;	????	Illegal as 2-op instr
     c42:	65 6c       	addc.b	@r12,	r5	
     c44:	73 2f       	jc	$-280    	;abs 0xb2c
     c46:	6d 73       	subc.b	#2,	r13	;r3 As==10
     c48:	70 67       	addc.b	@r7+,	r0	
     c4a:	63 63       	.word	0x6363;	????	Illegal as 2-op instr
     c4c:	2f 42       	mov	#4,	r15	;r2 As==10
     c4e:	55 49 4c 44 	mov.b	17484(r9),r5	;0x444c(r9)
     c52:	2f 67       	addc	@r7,	r15	
     c54:	63 63       	.word	0x6363;	????	Illegal as 2-op instr
     c56:	2f 6d       	addc	@r13,	r15	
     c58:	73 70       	.word	0x7073;	????	Illegal as 2-op instr
     c5a:	34 33       	jn	$-406    	;abs 0xac4
     c5c:	30 2f       	jc	$-414    	;abs 0xabe
     c5e:	6c 69       	addc.b	@r9,	r12	
     c60:	62 67       	addc.b	@r7,	r2	
     c62:	63 63       	.word	0x6363;	????	Illegal as 2-op instr
     c64:	00 47       	br	r7		
     c66:	4e 55       	add.b	r5,	r14	
     c68:	20 41       	br	@r1		
     c6a:	53 20       	jnz	$+168    	;abs 0xd12
     c6c:	32 2e       	jc	$-922    	;abs 0x8d2
     c6e:	32 31       	jn	$+614    	;abs 0xed4
     c70:	2e 31       	jn	$+606    	;abs 0xece
     c72:	00 01       	.word	0x0100;	????	
     c74:	80 84 00 00 	sub	r4,	0(r0)	;PC rel. 0x0c76
     c78:	00 02       	.word	0x0200;	????	
     c7a:	00 7f       	subc	r15,	r0	
     c7c:	04 00       	.word	0x0004;	????	
     c7e:	00 02       	.word	0x0200;	????	
     c80:	01 5e       	add	r14,	r1	
     c82:	06 00       	.word	0x0006;	????	
     c84:	00 30       	jn	$+2      	;abs 0xc86
     c86:	c9 52 c9 2e 	add.b	r2,	11977(r9);0x2ec9(r9)
     c8a:	2e 2f       	jc	$-418    	;abs 0xae8
     c8c:	2e 2e       	jc	$-930    	;abs 0x8ea
     c8e:	2f 2e       	jc	$-928    	;abs 0x8ee
     c90:	2e 2f       	jc	$-418    	;abs 0xaee
     c92:	2e 2e       	jc	$-930    	;abs 0x8f0
     c94:	2f 67       	addc	@r7,	r15	
     c96:	63 63       	.word	0x6363;	????	Illegal as 2-op instr
     c98:	2f 6c       	addc	@r12,	r15	
     c9a:	69 62       	addc.b	#4,	r9	;r2 As==10
     c9c:	67 63       	addc.b	#2,	r7	;r3 As==10
     c9e:	63 2f       	jc	$-312    	;abs 0xb66
     ca0:	2e 2e       	jc	$-930    	;abs 0x8fe
     ca2:	2f 67       	addc	@r7,	r15	
     ca4:	63 63       	.word	0x6363;	????	Illegal as 2-op instr
     ca6:	2f 63       	addc	#2,	r15	;r3 As==10
     ca8:	6f 6e       	addc.b	@r14,	r15	
     caa:	66 69       	addc.b	@r9,	r6	
     cac:	67 2f       	jc	$-304    	;abs 0xb7c
     cae:	6d 73       	subc.b	#2,	r13	;r3 As==10
     cb0:	70 34       	jge	$+226    	;abs 0xd92
     cb2:	33 30       	jn	$+104    	;abs 0xd1a
     cb4:	2f 6c       	addc	@r12,	r15	
     cb6:	69 62       	addc.b	#4,	r9	;r2 As==10
     cb8:	67 63       	addc.b	#2,	r7	;r3 As==10
     cba:	63 2e       	jc	$-824    	;abs 0x982
     cbc:	53 00       	.word	0x0053;	????	
     cbe:	2f 55       	add	@r5,	r15	
     cc0:	73 65       	.word	0x6573;	????	Illegal as 2-op instr
     cc2:	72 73       	subc.b	#-1,	r2	;r3 As==11
     cc4:	2f 72       	subc	#4,	r15	;r2 As==10
     cc6:	77 65       	addc.b	@r5+,	r7	
     cc8:	73 73       	.word	0x7373;	????	Illegal as 2-op instr
     cca:	65 6c       	addc.b	@r12,	r5	
     ccc:	73 2f       	jc	$-280    	;abs 0xbb4
     cce:	6d 73       	subc.b	#2,	r13	;r3 As==10
     cd0:	70 67       	addc.b	@r7+,	r0	
     cd2:	63 63       	.word	0x6363;	????	Illegal as 2-op instr
     cd4:	2f 42       	mov	#4,	r15	;r2 As==10
     cd6:	55 49 4c 44 	mov.b	17484(r9),r5	;0x444c(r9)
     cda:	2f 67       	addc	@r7,	r15	
     cdc:	63 63       	.word	0x6363;	????	Illegal as 2-op instr
     cde:	2f 6d       	addc	@r13,	r15	
     ce0:	73 70       	.word	0x7073;	????	Illegal as 2-op instr
     ce2:	34 33       	jn	$-406    	;abs 0xb4c
     ce4:	30 2f       	jc	$-414    	;abs 0xb46
     ce6:	6c 69       	addc.b	@r9,	r12	
     ce8:	62 67       	addc.b	@r7,	r2	
     cea:	63 63       	.word	0x6363;	????	Illegal as 2-op instr
     cec:	00 47       	br	r7		
     cee:	4e 55       	add.b	r5,	r14	
     cf0:	20 41       	br	@r1		
     cf2:	53 20       	jnz	$+168    	;abs 0xd9a
     cf4:	32 2e       	jc	$-922    	;abs 0x95a
     cf6:	32 31       	jn	$+614    	;abs 0xf5c
     cf8:	2e 31       	jn	$+606    	;abs 0xf56
     cfa:	00 01       	.word	0x0100;	????	
     cfc:	80 fa 00 00 	and	r10,	0(r0)	;PC rel. 0x0cfe
     d00:	00 02       	.word	0x0200;	????	
     d02:	00 93       	tst	r0		
     d04:	04 00       	.word	0x0004;	????	
     d06:	00 02       	.word	0x0200;	????	
     d08:	01 4b       	mov	r11,	r1	
     d0a:	01 00       	.word	0x0001;	????	
     d0c:	00 01       	.word	0x0100;	????	
     d0e:	ff 04       	.word	0x04ff;	????	
     d10:	00 00       	.word	0x0000;	????	
     d12:	cf 04       	.word	0x04cf;	????	
     d14:	00 00       	.word	0x0000;	????	
     d16:	52 c9 bc c9 	bic.b	-13892(r9),r2	;0xc9bc(r9)
     d1a:	cf 06       	.word	0x06cf;	????	
     d1c:	00 00       	.word	0x0000;	????	
     d1e:	02 01       	.word	0x0102;	????	
     d20:	06 57       	add	r7,	r6	
     d22:	00 00       	.word	0x0000;	????	
     d24:	00 03       	.word	0x0300;	????	
     d26:	02 05       	.word	0x0502;	????	
     d28:	69 6e       	addc.b	@r14,	r9	
     d2a:	74 00       	.word	0x0074;	????	
     d2c:	02 04       	.word	0x0402;	????	
     d2e:	05 5e       	add	r14,	r5	
     d30:	04 00       	.word	0x0004;	????	
     d32:	00 02       	.word	0x0200;	????	
     d34:	08 05       	.word	0x0508;	????	
     d36:	59 04       	.word	0x0459;	????	
     d38:	00 00       	.word	0x0000;	????	
     d3a:	02 01       	.word	0x0102;	????	
     d3c:	08 55       	add	r5,	r8	
     d3e:	00 00       	.word	0x0000;	????	
     d40:	00 02       	.word	0x0200;	????	
     d42:	02 07       	.word	0x0702;	????	
     d44:	34 04       	.word	0x0434;	????	
     d46:	00 00       	.word	0x0000;	????	
     d48:	02 04       	.word	0x0402;	????	
     d4a:	07 2f       	jc	$-496    	;abs 0xb5a
     d4c:	04 00       	.word	0x0004;	????	
     d4e:	00 02       	.word	0x0200;	????	
     d50:	08 07       	.word	0x0708;	????	
     d52:	2a 04       	.word	0x042a;	????	
     d54:	00 00       	.word	0x0000;	????	
     d56:	04 c1       	bic	r1,	r4	
     d58:	04 00       	.word	0x0004;	????	
     d5a:	00 02       	.word	0x0200;	????	
     d5c:	30 3d       	jmp	$+610    	;abs 0xfbe
     d5e:	00 00       	.word	0x0000;	????	
     d60:	00 02       	.word	0x0200;	????	
     d62:	02 07       	.word	0x0702;	????	
     d64:	ae 04       	.word	0x04ae;	????	
     d66:	00 00       	.word	0x0000;	????	
     d68:	04 11       	rra	r4		
     d6a:	05 00       	.word	0x0005;	????	
     d6c:	00 02       	.word	0x0200;	????	
     d6e:	32 44       	mov	@r4+,	r2	
     d70:	00 00       	.word	0x0000;	????	
     d72:	00 02       	.word	0x0200;	????	
     d74:	01 06       	.word	0x0601;	????	
     d76:	5e 00       	.word	0x005e;	????	
     d78:	00 00       	.word	0x0000;	????	
     d7a:	04 a2       	dadd	r2,	r4	
     d7c:	04 00       	.word	0x0004;	????	
     d7e:	00 03       	.word	0x0300;	????	
     d80:	d4 44 00 00 	mov.b	0(r4),	1280(r4);0x0000(r4), 0x0500(r4)
     d84:	00 05 
     d86:	01 c8       	bic	r8,	r1	
     d88:	04 00       	.word	0x0004;	????	
     d8a:	00 01       	.word	0x0100;	????	
     d8c:	39 01       	.word	0x0139;	????	
     d8e:	f5 00       	.word	0x00f5;	????	
     d90:	00 00       	.word	0x0000;	????	
     d92:	52 c9 bc c9 	bic.b	-13892(r9),r2	;0xc9bc(r9)
     d96:	f3 05       	.word	0x05f3;	????	
     d98:	00 00       	.word	0x0000;	????	
     d9a:	f5 00       	.word	0x00f5;	????	
     d9c:	00 00       	.word	0x0000;	????	
     d9e:	06 a9       	dadd	r9,	r6	
     da0:	04 00       	.word	0x0004;	????	
     da2:	00 01       	.word	0x0100;	????	
     da4:	3a f5       	and	@r5+,	r10	
     da6:	00 00       	.word	0x0000;	????	
     da8:	00 01       	.word	0x0100;	????	
     daa:	5f 07       	.word	0x075f;	????	
     dac:	63 30       	jn	$+200    	;abs 0xe74
     dae:	00 01       	.word	0x0100;	????	
     db0:	3b 28       	jnc	$+120    	;abs 0xe28
     db2:	00 00       	.word	0x0000;	????	
     db4:	00 1f       	.word	0x1f00;	????	
     db6:	06 00       	.word	0x0006;	????	
     db8:	00 08       	.word	0x0800;	????	
     dba:	17 05       	.word	0x0517;	????	
     dbc:	00 00       	.word	0x0000;	????	
     dbe:	01 3c       	jmp	$+4      	;abs 0xdc2
     dc0:	7d 00       	.word	0x007d;	????	
     dc2:	00 00       	.word	0x0000;	????	
     dc4:	2a 06       	.word	0x062a;	????	
     dc6:	00 00       	.word	0x0000;	????	
     dc8:	09 74       	subc	r4,	r9	
     dca:	00 01       	.word	0x0100;	????	
     dcc:	3f 7d       	subc	@r13+,	r15	
     dce:	00 00       	.word	0x0000;	????	
     dd0:	00 35       	jge	$+514    	;abs 0xfd2
     dd2:	06 00       	.word	0x0006;	????	
     dd4:	00 09       	.word	0x0900;	????	
     dd6:	63 00       	.word	0x0063;	????	
     dd8:	01 41       	mov	r1,	r1	
     dda:	6b 00       	.word	0x006b;	????	
     ddc:	00 00       	.word	0x0000;	????	
     dde:	87 06       	.word	0x0687;	????	
     de0:	00 00       	.word	0x0000;	????	
     de2:	09 64       	addc	r4,	r9	
     de4:	73 74       	.word	0x7473;	????	Illegal as 2-op instr
     de6:	00 01       	.word	0x0100;	????	
     de8:	43 f7       	.word	0xf743;	????	Illegal as 2-op instr
     dea:	00 00       	.word	0x0000;	????	
     dec:	00 92       	cmp	r2,	r0	
     dee:	06 00       	.word	0x0006;	????	
     df0:	00 00       	.word	0x0000;	????	
     df2:	0a 02       	.word	0x020a;	????	
     df4:	0b 02       	.word	0x020b;	????	
     df6:	59 00       	.word	0x0059;	????	
     df8:	00 00       	.word	0x0000;	????	
     dfa:	00 6b       	addc	r11,	r0	
     dfc:	00 00       	.word	0x0000;	????	
     dfe:	00 02       	.word	0x0200;	????	
     e00:	00 2f       	jc	$-510    	;abs 0xc02
     e02:	05 00       	.word	0x0005;	????	
     e04:	00 02       	.word	0x0200;	????	
     e06:	01 b5       	bit	r5,	r1	
     e08:	07 00       	.word	0x0007;	????	
     e0a:	00 00       	.word	0x0000;	????	
     e0c:	c0 0c       	.word	0x0cc0;	????	
     e0e:	c0 2e       	jc	$-638    	;abs 0xb90
     e10:	2e 2f       	jc	$-418    	;abs 0xc6e
     e12:	2e 2e       	jc	$-930    	;abs 0xa70
     e14:	2f 2e       	jc	$-928    	;abs 0xa74
     e16:	2e 2f       	jc	$-418    	;abs 0xc74
     e18:	67 63       	addc.b	#2,	r7	;r3 As==10
     e1a:	63 2f       	jc	$-312    	;abs 0xce2
     e1c:	67 63       	addc.b	#2,	r7	;r3 As==10
     e1e:	63 2f       	jc	$-312    	;abs 0xce6
     e20:	63 6f       	.word	0x6f63;	????	Illegal as 2-op instr
     e22:	6e 66       	addc.b	@r6,	r14	
     e24:	69 67       	addc.b	@r7,	r9	
     e26:	2f 6d       	addc	@r13,	r15	
     e28:	73 70       	.word	0x7073;	????	Illegal as 2-op instr
     e2a:	34 33       	jn	$-406    	;abs 0xc94
     e2c:	30 2f       	jc	$-414    	;abs 0xc8e
     e2e:	63 72       	.word	0x7263;	????	Illegal as 2-op instr
     e30:	74 30       	jn	$+234    	;abs 0xf1a
     e32:	2e 53       	incd	r14		
     e34:	00 2f       	jc	$-510    	;abs 0xc36
     e36:	55 73       	subc.b	#1,	r5	;r3 As==01
     e38:	65 72       	subc.b	#4,	r5	;r2 As==10
     e3a:	73 2f       	jc	$-280    	;abs 0xd22
     e3c:	72 77       	subc.b	@r7+,	r2	
     e3e:	65 73       	subc.b	#2,	r5	;r3 As==10
     e40:	73 65       	.word	0x6573;	????	Illegal as 2-op instr
     e42:	6c 73       	subc.b	#2,	r12	;r3 As==10
     e44:	2f 6d       	addc	@r13,	r15	
     e46:	73 70       	.word	0x7073;	????	Illegal as 2-op instr
     e48:	67 63       	addc.b	#2,	r7	;r3 As==10
     e4a:	63 2f       	jc	$-312    	;abs 0xd12
     e4c:	42 55       	add.b	r5,	r2	
     e4e:	49 4c       	mov.b	r12,	r9	
     e50:	44 2f       	jc	$-374    	;abs 0xcda
     e52:	67 63       	addc.b	#2,	r7	;r3 As==10
     e54:	63 2f       	jc	$-312    	;abs 0xd1c
     e56:	67 63       	addc.b	#2,	r7	;r3 As==10
     e58:	63 00       	.word	0x0063;	????	
     e5a:	47 4e       	mov.b	r14,	r7	
     e5c:	55 20       	jnz	$+172    	;abs 0xf08
     e5e:	41 53       	add.b	#0,	r1	;r3 As==00
     e60:	20 32       	jn	$-958    	;abs 0xaa2
     e62:	2e 32       	jn	$-930    	;abs 0xac0
     e64:	31 2e       	jc	$-924    	;abs 0xac8
     e66:	31 00       	.word	0x0031;	????	
     e68:	01 80       	sub	r0,	r1	
     e6a:	6b 00       	.word	0x006b;	????	
     e6c:	00 00       	.word	0x0000;	????	
     e6e:	02 00       	.word	0x0002;	????	
     e70:	43 05       	.word	0x0543;	????	
     e72:	00 00       	.word	0x0000;	????	
     e74:	02 01       	.word	0x0102;	????	
     e76:	0b 08       	.word	0x080b;	????	
     e78:	00 00       	.word	0x0000;	????	
     e7a:	0c c0       	bic	r0,	r12	
     e7c:	10 c0 2e 2e 	bic	11822(r0),r0	;PC rel. 0x3cac
     e80:	2f 2e       	jc	$-928    	;abs 0xae0
     e82:	2e 2f       	jc	$-418    	;abs 0xce0
     e84:	2e 2e       	jc	$-930    	;abs 0xae2
     e86:	2f 67       	addc	@r7,	r15	
     e88:	63 63       	.word	0x6363;	????	Illegal as 2-op instr
     e8a:	2f 67       	addc	@r7,	r15	
     e8c:	63 63       	.word	0x6363;	????	Illegal as 2-op instr
     e8e:	2f 63       	addc	#2,	r15	;r3 As==10
     e90:	6f 6e       	addc.b	@r14,	r15	
     e92:	66 69       	addc.b	@r9,	r6	
     e94:	67 2f       	jc	$-304    	;abs 0xd64
     e96:	6d 73       	subc.b	#2,	r13	;r3 As==10
     e98:	70 34       	jge	$+226    	;abs 0xf7a
     e9a:	33 30       	jn	$+104    	;abs 0xf02
     e9c:	2f 63       	addc	#2,	r15	;r3 As==10
     e9e:	72 74       	subc.b	@r4+,	r2	
     ea0:	30 2e       	jc	$-926    	;abs 0xb02
     ea2:	53 00       	.word	0x0053;	????	
     ea4:	2f 55       	add	@r5,	r15	
     ea6:	73 65       	.word	0x6573;	????	Illegal as 2-op instr
     ea8:	72 73       	subc.b	#-1,	r2	;r3 As==11
     eaa:	2f 72       	subc	#4,	r15	;r2 As==10
     eac:	77 65       	addc.b	@r5+,	r7	
     eae:	73 73       	.word	0x7373;	????	Illegal as 2-op instr
     eb0:	65 6c       	addc.b	@r12,	r5	
     eb2:	73 2f       	jc	$-280    	;abs 0xd9a
     eb4:	6d 73       	subc.b	#2,	r13	;r3 As==10
     eb6:	70 67       	addc.b	@r7+,	r0	
     eb8:	63 63       	.word	0x6363;	????	Illegal as 2-op instr
     eba:	2f 42       	mov	#4,	r15	;r2 As==10
     ebc:	55 49 4c 44 	mov.b	17484(r9),r5	;0x444c(r9)
     ec0:	2f 67       	addc	@r7,	r15	
     ec2:	63 63       	.word	0x6363;	????	Illegal as 2-op instr
     ec4:	2f 67       	addc	@r7,	r15	
     ec6:	63 63       	.word	0x6363;	????	Illegal as 2-op instr
     ec8:	00 47       	br	r7		
     eca:	4e 55       	add.b	r5,	r14	
     ecc:	20 41       	br	@r1		
     ece:	53 20       	jnz	$+168    	;abs 0xf76
     ed0:	32 2e       	jc	$-922    	;abs 0xb36
     ed2:	32 31       	jn	$+614    	;abs 0x1138
     ed4:	2e 31       	jn	$+606    	;abs 0x1132
     ed6:	00 01       	.word	0x0100;	????	
     ed8:	80 6b 00 00 	addc	r11,	0(r0)	;PC rel. 0x0eda
     edc:	00 02       	.word	0x0200;	????	
     ede:	00 57       	add	r7,	r0	
     ee0:	05 00       	.word	0x0005;	????	
     ee2:	00 02       	.word	0x0200;	????	
     ee4:	01 5f       	add	r15,	r1	
     ee6:	08 00       	.word	0x0008;	????	
     ee8:	00 10       	rrc	r0		
     eea:	c0 28       	jnc	$+386    	;abs 0x106c
     eec:	c0 2e       	jc	$-638    	;abs 0xc6e
     eee:	2e 2f       	jc	$-418    	;abs 0xd4c
     ef0:	2e 2e       	jc	$-930    	;abs 0xb4e
     ef2:	2f 2e       	jc	$-928    	;abs 0xb52
     ef4:	2e 2f       	jc	$-418    	;abs 0xd52
     ef6:	67 63       	addc.b	#2,	r7	;r3 As==10
     ef8:	63 2f       	jc	$-312    	;abs 0xdc0
     efa:	67 63       	addc.b	#2,	r7	;r3 As==10
     efc:	63 2f       	jc	$-312    	;abs 0xdc4
     efe:	63 6f       	.word	0x6f63;	????	Illegal as 2-op instr
     f00:	6e 66       	addc.b	@r6,	r14	
     f02:	69 67       	addc.b	@r7,	r9	
     f04:	2f 6d       	addc	@r13,	r15	
     f06:	73 70       	.word	0x7073;	????	Illegal as 2-op instr
     f08:	34 33       	jn	$-406    	;abs 0xd72
     f0a:	30 2f       	jc	$-414    	;abs 0xd6c
     f0c:	63 72       	.word	0x7263;	????	Illegal as 2-op instr
     f0e:	74 30       	jn	$+234    	;abs 0xff8
     f10:	2e 53       	incd	r14		
     f12:	00 2f       	jc	$-510    	;abs 0xd14
     f14:	55 73       	subc.b	#1,	r5	;r3 As==01
     f16:	65 72       	subc.b	#4,	r5	;r2 As==10
     f18:	73 2f       	jc	$-280    	;abs 0xe00
     f1a:	72 77       	subc.b	@r7+,	r2	
     f1c:	65 73       	subc.b	#2,	r5	;r3 As==10
     f1e:	73 65       	.word	0x6573;	????	Illegal as 2-op instr
     f20:	6c 73       	subc.b	#2,	r12	;r3 As==10
     f22:	2f 6d       	addc	@r13,	r15	
     f24:	73 70       	.word	0x7073;	????	Illegal as 2-op instr
     f26:	67 63       	addc.b	#2,	r7	;r3 As==10
     f28:	63 2f       	jc	$-312    	;abs 0xdf0
     f2a:	42 55       	add.b	r5,	r2	
     f2c:	49 4c       	mov.b	r12,	r9	
     f2e:	44 2f       	jc	$-374    	;abs 0xdb8
     f30:	67 63       	addc.b	#2,	r7	;r3 As==10
     f32:	63 2f       	jc	$-312    	;abs 0xdfa
     f34:	67 63       	addc.b	#2,	r7	;r3 As==10
     f36:	63 00       	.word	0x0063;	????	
     f38:	47 4e       	mov.b	r14,	r7	
     f3a:	55 20       	jnz	$+172    	;abs 0xfe6
     f3c:	41 53       	add.b	#0,	r1	;r3 As==00
     f3e:	20 32       	jn	$-958    	;abs 0xb80
     f40:	2e 32       	jn	$-930    	;abs 0xb9e
     f42:	31 2e       	jc	$-924    	;abs 0xba6
     f44:	31 00       	.word	0x0031;	????	
     f46:	01 80       	sub	r0,	r1	
     f48:	6b 00       	.word	0x006b;	????	
     f4a:	00 00       	.word	0x0000;	????	
     f4c:	02 00       	.word	0x0002;	????	
     f4e:	6b 05       	.word	0x056b;	????	
     f50:	00 00       	.word	0x0000;	????	
     f52:	02 01       	.word	0x0102;	????	
     f54:	b9 08       	.word	0x08b9;	????	
     f56:	00 00       	.word	0x0000;	????	
     f58:	28 c0       	bic	@r0,	r8	
     f5a:	3e c0 2e 2e 	bic	#11822,	r14	;#0x2e2e
     f5e:	2f 2e       	jc	$-928    	;abs 0xbbe
     f60:	2e 2f       	jc	$-418    	;abs 0xdbe
     f62:	2e 2e       	jc	$-930    	;abs 0xbc0
     f64:	2f 67       	addc	@r7,	r15	
     f66:	63 63       	.word	0x6363;	????	Illegal as 2-op instr
     f68:	2f 67       	addc	@r7,	r15	
     f6a:	63 63       	.word	0x6363;	????	Illegal as 2-op instr
     f6c:	2f 63       	addc	#2,	r15	;r3 As==10
     f6e:	6f 6e       	addc.b	@r14,	r15	
     f70:	66 69       	addc.b	@r9,	r6	
     f72:	67 2f       	jc	$-304    	;abs 0xe42
     f74:	6d 73       	subc.b	#2,	r13	;r3 As==10
     f76:	70 34       	jge	$+226    	;abs 0x1058
     f78:	33 30       	jn	$+104    	;abs 0xfe0
     f7a:	2f 63       	addc	#2,	r15	;r3 As==10
     f7c:	72 74       	subc.b	@r4+,	r2	
     f7e:	30 2e       	jc	$-926    	;abs 0xbe0
     f80:	53 00       	.word	0x0053;	????	
     f82:	2f 55       	add	@r5,	r15	
     f84:	73 65       	.word	0x6573;	????	Illegal as 2-op instr
     f86:	72 73       	subc.b	#-1,	r2	;r3 As==11
     f88:	2f 72       	subc	#4,	r15	;r2 As==10
     f8a:	77 65       	addc.b	@r5+,	r7	
     f8c:	73 73       	.word	0x7373;	????	Illegal as 2-op instr
     f8e:	65 6c       	addc.b	@r12,	r5	
     f90:	73 2f       	jc	$-280    	;abs 0xe78
     f92:	6d 73       	subc.b	#2,	r13	;r3 As==10
     f94:	70 67       	addc.b	@r7+,	r0	
     f96:	63 63       	.word	0x6363;	????	Illegal as 2-op instr
     f98:	2f 42       	mov	#4,	r15	;r2 As==10
     f9a:	55 49 4c 44 	mov.b	17484(r9),r5	;0x444c(r9)
     f9e:	2f 67       	addc	@r7,	r15	
     fa0:	63 63       	.word	0x6363;	????	Illegal as 2-op instr
     fa2:	2f 67       	addc	@r7,	r15	
     fa4:	63 63       	.word	0x6363;	????	Illegal as 2-op instr
     fa6:	00 47       	br	r7		
     fa8:	4e 55       	add.b	r5,	r14	
     faa:	20 41       	br	@r1		
     fac:	53 20       	jnz	$+168    	;abs 0x1054
     fae:	32 2e       	jc	$-922    	;abs 0xc14
     fb0:	32 31       	jn	$+614    	;abs 0x1216
     fb2:	2e 31       	jn	$+606    	;abs 0x1210
     fb4:	00 01       	.word	0x0100;	????	
     fb6:	80 6b 00 00 	addc	r11,	0(r0)	;PC rel. 0x0fb8
     fba:	00 02       	.word	0x0200;	????	
     fbc:	00 7f       	subc	r15,	r0	
     fbe:	05 00       	.word	0x0005;	????	
     fc0:	00 02       	.word	0x0200;	????	
     fc2:	01 13       	reti			;return from interupt
     fc4:	09 00       	.word	0x0009;	????	
     fc6:	00 6c       	addc	r12,	r0	
     fc8:	c1 72 c1 2e 	subc.b	r2,	11969(r1);0x2ec1(r1)
     fcc:	2e 2f       	jc	$-418    	;abs 0xe2a
     fce:	2e 2e       	jc	$-930    	;abs 0xc2c
     fd0:	2f 2e       	jc	$-928    	;abs 0xc30
     fd2:	2e 2f       	jc	$-418    	;abs 0xe30
     fd4:	67 63       	addc.b	#2,	r7	;r3 As==10
     fd6:	63 2f       	jc	$-312    	;abs 0xe9e
     fd8:	67 63       	addc.b	#2,	r7	;r3 As==10
     fda:	63 2f       	jc	$-312    	;abs 0xea2
     fdc:	63 6f       	.word	0x6f63;	????	Illegal as 2-op instr
     fde:	6e 66       	addc.b	@r6,	r14	
     fe0:	69 67       	addc.b	@r7,	r9	
     fe2:	2f 6d       	addc	@r13,	r15	
     fe4:	73 70       	.word	0x7073;	????	Illegal as 2-op instr
     fe6:	34 33       	jn	$-406    	;abs 0xe50
     fe8:	30 2f       	jc	$-414    	;abs 0xe4a
     fea:	63 72       	.word	0x7263;	????	Illegal as 2-op instr
     fec:	74 30       	jn	$+234    	;abs 0x10d6
     fee:	2e 53       	incd	r14		
     ff0:	00 2f       	jc	$-510    	;abs 0xdf2
     ff2:	55 73       	subc.b	#1,	r5	;r3 As==01
     ff4:	65 72       	subc.b	#4,	r5	;r2 As==10
     ff6:	73 2f       	jc	$-280    	;abs 0xede
     ff8:	72 77       	subc.b	@r7+,	r2	
     ffa:	65 73       	subc.b	#2,	r5	;r3 As==10
     ffc:	73 65       	.word	0x6573;	????	Illegal as 2-op instr
     ffe:	6c 73       	subc.b	#2,	r12	;r3 As==10
    1000:	2f 6d       	addc	@r13,	r15	
    1002:	73 70       	.word	0x7073;	????	Illegal as 2-op instr
    1004:	67 63       	addc.b	#2,	r7	;r3 As==10
    1006:	63 2f       	jc	$-312    	;abs 0xece
    1008:	42 55       	add.b	r5,	r2	
    100a:	49 4c       	mov.b	r12,	r9	
    100c:	44 2f       	jc	$-374    	;abs 0xe96
    100e:	67 63       	addc.b	#2,	r7	;r3 As==10
    1010:	63 2f       	jc	$-312    	;abs 0xed8
    1012:	67 63       	addc.b	#2,	r7	;r3 As==10
    1014:	63 00       	.word	0x0063;	????	
    1016:	47 4e       	mov.b	r14,	r7	
    1018:	55 20       	jnz	$+172    	;abs 0x10c4
    101a:	41 53       	add.b	#0,	r1	;r3 As==00
    101c:	20 32       	jn	$-958    	;abs 0xc5e
    101e:	2e 32       	jn	$-930    	;abs 0xc7c
    1020:	31 2e       	jc	$-924    	;abs 0xc84
    1022:	31 00       	.word	0x0031;	????	
    1024:	01 80       	sub	r0,	r1	
    1026:	6b 00       	.word	0x006b;	????	
    1028:	00 00       	.word	0x0000;	????	
    102a:	02 00       	.word	0x0002;	????	
    102c:	93 05       	.word	0x0593;	????	
    102e:	00 00       	.word	0x0000;	????	
    1030:	02 01       	.word	0x0102;	????	
    1032:	68 09       	.word	0x0968;	????	
    1034:	00 00       	.word	0x0000;	????	
    1036:	bc c9 be c9 	bic	@r9+,	-13890(r12);0xc9be(r12)
    103a:	2e 2e       	jc	$-930    	;abs 0xc98
    103c:	2f 2e       	jc	$-928    	;abs 0xc9c
    103e:	2e 2f       	jc	$-418    	;abs 0xe9c
    1040:	2e 2e       	jc	$-930    	;abs 0xc9e
    1042:	2f 67       	addc	@r7,	r15	
    1044:	63 63       	.word	0x6363;	????	Illegal as 2-op instr
    1046:	2f 67       	addc	@r7,	r15	
    1048:	63 63       	.word	0x6363;	????	Illegal as 2-op instr
    104a:	2f 63       	addc	#2,	r15	;r3 As==10
    104c:	6f 6e       	addc.b	@r14,	r15	
    104e:	66 69       	addc.b	@r9,	r6	
    1050:	67 2f       	jc	$-304    	;abs 0xf20
    1052:	6d 73       	subc.b	#2,	r13	;r3 As==10
    1054:	70 34       	jge	$+226    	;abs 0x1136
    1056:	33 30       	jn	$+104    	;abs 0x10be
    1058:	2f 63       	addc	#2,	r15	;r3 As==10
    105a:	72 74       	subc.b	@r4+,	r2	
    105c:	30 2e       	jc	$-926    	;abs 0xcbe
    105e:	53 00       	.word	0x0053;	????	
    1060:	2f 55       	add	@r5,	r15	
    1062:	73 65       	.word	0x6573;	????	Illegal as 2-op instr
    1064:	72 73       	subc.b	#-1,	r2	;r3 As==11
    1066:	2f 72       	subc	#4,	r15	;r2 As==10
    1068:	77 65       	addc.b	@r5+,	r7	
    106a:	73 73       	.word	0x7373;	????	Illegal as 2-op instr
    106c:	65 6c       	addc.b	@r12,	r5	
    106e:	73 2f       	jc	$-280    	;abs 0xf56
    1070:	6d 73       	subc.b	#2,	r13	;r3 As==10
    1072:	70 67       	addc.b	@r7+,	r0	
    1074:	63 63       	.word	0x6363;	????	Illegal as 2-op instr
    1076:	2f 42       	mov	#4,	r15	;r2 As==10
    1078:	55 49 4c 44 	mov.b	17484(r9),r5	;0x444c(r9)
    107c:	2f 67       	addc	@r7,	r15	
    107e:	63 63       	.word	0x6363;	????	Illegal as 2-op instr
    1080:	2f 67       	addc	@r7,	r15	
    1082:	63 63       	.word	0x6363;	????	Illegal as 2-op instr
    1084:	00 47       	br	r7		
    1086:	4e 55       	add.b	r5,	r14	
    1088:	20 41       	br	@r1		
    108a:	53 20       	jnz	$+168    	;abs 0x1132
    108c:	32 2e       	jc	$-922    	;abs 0xcf2
    108e:	32 31       	jn	$+614    	;abs 0x12f4
    1090:	2e 31       	jn	$+606    	;abs 0x12ee
    1092:	00 01       	.word	0x0100;	????	
    1094:	80 00       	Address 0x0000000000001094 is out of bounds.
Address 0x0000000000001096 is out of bounds.
and.b	@r15+,	-1(r15)	;0xffff(r15)

Disassembly of section .debug_abbrev:

00000000 <.debug_abbrev>:
   0:	01 11       	rra	r1		
   2:	01 25       	jz	$+516    	;abs 0x206
   4:	0e 13       	reti			;return from interupt
   6:	0b 03       	.word	0x030b;	????	
   8:	0e 1b       	.word	0x1b0e;	????	
   a:	0e 11       	rra	r14		
   c:	01 52       	add	r2,	r1	
   e:	01 55       	add	r5,	r1	
  10:	06 10       	rrc	r6		
  12:	06 00       	.word	0x0006;	????	
  14:	00 02       	.word	0x0200;	????	
  16:	24 00       	.word	0x0024;	????	
  18:	0b 0b       	.word	0x0b0b;	????	
  1a:	3e 0b       	.word	0x0b3e;	????	
  1c:	03 0e       	.word	0x0e03;	????	
  1e:	00 00       	.word	0x0000;	????	
  20:	03 13       	reti			;return from interupt
  22:	01 0b       	.word	0x0b01;	????	
  24:	0b 3a       	jl	$-1000   	;abs 0xfc3c
  26:	0b 3b       	jl	$-488    	;abs 0xfe3e
  28:	0b 01       	.word	0x010b;	????	
  2a:	13 00       	.word	0x0013;	????	
  2c:	00 04       	.word	0x0400;	????	
  2e:	0d 00       	.word	0x000d;	????	
  30:	03 08       	.word	0x0803;	????	
  32:	3a 0b       	.word	0x0b3a;	????	
  34:	3b 0b       	.word	0x0b3b;	????	
  36:	49 13       	.word	0x1349;	????	
  38:	38 0a       	.word	0x0a38;	????	
  3a:	00 00       	.word	0x0000;	????	
  3c:	05 01       	.word	0x0105;	????	
  3e:	01 49       	mov	r9,	r1	
  40:	13 01       	.word	0x0113;	????	
  42:	13 00       	.word	0x0013;	????	
  44:	00 06       	.word	0x0600;	????	
  46:	21 00       	.word	0x0021;	????	
  48:	49 13       	.word	0x1349;	????	
  4a:	2f 0b       	.word	0x0b2f;	????	
  4c:	00 00       	.word	0x0000;	????	
  4e:	07 16       	.word	0x1607;	????	
  50:	00 03       	.word	0x0300;	????	
  52:	0e 3a       	jl	$-994    	;abs 0xfc70
  54:	0b 3b       	jl	$-488    	;abs 0xfe6c
  56:	0b 49       	mov	r9,	r11	
  58:	13 00       	.word	0x0013;	????	
  5a:	00 08       	.word	0x0800;	????	
  5c:	0d 00       	.word	0x000d;	????	
  5e:	03 0e       	.word	0x0e03;	????	
  60:	3a 0b       	.word	0x0b3a;	????	
  62:	3b 0b       	.word	0x0b3b;	????	
  64:	49 13       	.word	0x1349;	????	
  66:	38 0a       	.word	0x0a38;	????	
  68:	00 00       	.word	0x0000;	????	
  6a:	09 0f       	.word	0x0f09;	????	
  6c:	00 0b       	.word	0x0b00;	????	
  6e:	0b 49       	mov	r9,	r11	
  70:	13 00       	.word	0x0013;	????	
  72:	00 0a       	.word	0x0a00;	????	
  74:	26 00       	.word	0x0026;	????	
  76:	49 13       	.word	0x1349;	????	
  78:	00 00       	.word	0x0000;	????	
  7a:	0b 15       	.word	0x150b;	????	
  7c:	01 27       	jz	$-508    	;abs 0xfe80
  7e:	0c 49       	mov	r9,	r12	
  80:	13 01       	.word	0x0113;	????	
  82:	13 00       	.word	0x0013;	????	
  84:	00 0c       	.word	0x0c00;	????	
  86:	05 00       	.word	0x0005;	????	
  88:	49 13       	.word	0x1349;	????	
  8a:	00 00       	.word	0x0000;	????	
  8c:	0d 24       	jz	$+28     	;abs 0xa8
  8e:	00 0b       	.word	0x0b00;	????	
  90:	0b 3e       	jmp	$-1000   	;abs 0xfca8
  92:	0b 03       	.word	0x030b;	????	
  94:	08 00       	.word	0x0008;	????	
  96:	00 0e       	.word	0x0e00;	????	
  98:	21 00       	.word	0x0021;	????	
  9a:	49 13       	.word	0x1349;	????	
  9c:	00 00       	.word	0x0000;	????	
  9e:	0f 2e       	jc	$-992    	;abs 0xfcbe
  a0:	01 3f       	jmp	$-508    	;abs 0xfea4
  a2:	0c 03       	.word	0x030c;	????	
  a4:	0e 3a       	jl	$-994    	;abs 0xfcc2
  a6:	0b 3b       	jl	$-488    	;abs 0xfebe
  a8:	0b 27       	jz	$-488    	;abs 0xfec0
  aa:	0c 49       	mov	r9,	r12	
  ac:	13 11       	rra	#1		;r3 As==01
  ae:	01 12       	push	r1		
  b0:	01 40       	mov	r0,	r1	
  b2:	06 01       	.word	0x0106;	????	
  b4:	13 00       	.word	0x0013;	????	
  b6:	00 10       	rrc	r0		
  b8:	05 00       	.word	0x0005;	????	
  ba:	03 0e       	.word	0x0e03;	????	
  bc:	3a 0b       	.word	0x0b3a;	????	
  be:	3b 0b       	.word	0x0b3b;	????	
  c0:	49 13       	.word	0x1349;	????	
  c2:	02 0a       	.word	0x0a02;	????	
  c4:	00 00       	.word	0x0000;	????	
  c6:	11 34       	jge	$+36     	;abs 0xea
  c8:	00 03       	.word	0x0300;	????	
  ca:	08 3a       	jl	$-1006   	;abs 0xfcdc
  cc:	0b 3b       	jl	$-488    	;abs 0xfee4
  ce:	0b 49       	mov	r9,	r11	
  d0:	13 02       	.word	0x0213;	????	
  d2:	0a 00       	.word	0x000a;	????	
  d4:	00 12       	push	r0		
  d6:	34 00       	.word	0x0034;	????	
  d8:	03 0e       	.word	0x0e03;	????	
  da:	3a 0b       	.word	0x0b3a;	????	
  dc:	3b 0b       	.word	0x0b3b;	????	
  de:	49 13       	.word	0x1349;	????	
  e0:	02 0a       	.word	0x0a02;	????	
  e2:	00 00       	.word	0x0000;	????	
  e4:	13 0b       	.word	0x0b13;	????	
  e6:	01 11       	rra	r1		
  e8:	01 12       	push	r1		
  ea:	01 00       	.word	0x0001;	????	
  ec:	00 14       	.word	0x1400;	????	
  ee:	2e 00       	.word	0x002e;	????	
  f0:	3f 0c       	.word	0x0c3f;	????	
  f2:	03 0e       	.word	0x0e03;	????	
  f4:	3a 0b       	.word	0x0b3a;	????	
  f6:	3b 0b       	.word	0x0b3b;	????	
  f8:	27 0c       	.word	0x0c27;	????	
  fa:	11 01       	.word	0x0111;	????	
  fc:	12 01       	.word	0x0112;	????	
  fe:	40 06       	.word	0x0640;	????	
 100:	00 00       	.word	0x0000;	????	
 102:	15 34       	jge	$+44     	;abs 0x12e
 104:	00 03       	.word	0x0300;	????	
 106:	0e 3a       	jl	$-994    	;abs 0xfd24
 108:	0b 3b       	jl	$-488    	;abs 0xff20
 10a:	05 87       	sub	r7,	r5	
 10c:	40 0e       	.word	0x0e40;	????	
 10e:	49 13       	.word	0x1349;	????	
 110:	3f 0c       	.word	0x0c3f;	????	
 112:	3c 0c       	.word	0x0c3c;	????	
 114:	00 00       	.word	0x0000;	????	
 116:	16 35       	jge	$+558    	;abs 0x344
 118:	00 49       	br	r9		
 11a:	13 00       	.word	0x0013;	????	
 11c:	00 17       	.word	0x1700;	????	
 11e:	34 00       	.word	0x0034;	????	
 120:	03 0e       	.word	0x0e03;	????	
 122:	3a 0b       	.word	0x0b3a;	????	
 124:	3b 0b       	.word	0x0b3b;	????	
 126:	49 13       	.word	0x1349;	????	
 128:	3f 0c       	.word	0x0c3f;	????	
 12a:	02 0a       	.word	0x0a02;	????	
 12c:	00 00       	.word	0x0000;	????	
 12e:	00 01       	.word	0x0100;	????	
 130:	11 01       	.word	0x0111;	????	
 132:	25 0e       	.word	0x0e25;	????	
 134:	13 0b       	.word	0x0b13;	????	
 136:	03 0e       	.word	0x0e03;	????	
 138:	1b 0e       	.word	0x0e1b;	????	
 13a:	11 01       	.word	0x0111;	????	
 13c:	12 01       	.word	0x0112;	????	
 13e:	10 06       	.word	0x0610;	????	
 140:	00 00       	.word	0x0000;	????	
 142:	02 13       	reti			;return from interupt
 144:	01 0b       	.word	0x0b01;	????	
 146:	0b 3a       	jl	$-1000   	;abs 0xfd5e
 148:	0b 3b       	jl	$-488    	;abs 0xff60
 14a:	0b 01       	.word	0x010b;	????	
 14c:	13 00       	.word	0x0013;	????	
 14e:	00 03       	.word	0x0300;	????	
 150:	0d 00       	.word	0x000d;	????	
 152:	03 08       	.word	0x0803;	????	
 154:	3a 0b       	.word	0x0b3a;	????	
 156:	3b 0b       	.word	0x0b3b;	????	
 158:	49 13       	.word	0x1349;	????	
 15a:	38 0a       	.word	0x0a38;	????	
 15c:	00 00       	.word	0x0000;	????	
 15e:	04 01       	.word	0x0104;	????	
 160:	01 49       	mov	r9,	r1	
 162:	13 01       	.word	0x0113;	????	
 164:	13 00       	.word	0x0013;	????	
 166:	00 05       	.word	0x0500;	????	
 168:	21 00       	.word	0x0021;	????	
 16a:	49 13       	.word	0x1349;	????	
 16c:	2f 0b       	.word	0x0b2f;	????	
 16e:	00 00       	.word	0x0000;	????	
 170:	06 24       	jz	$+14     	;abs 0x17e
 172:	00 0b       	.word	0x0b00;	????	
 174:	0b 3e       	jmp	$-1000   	;abs 0xfd8c
 176:	0b 03       	.word	0x030b;	????	
 178:	0e 00       	.word	0x000e;	????	
 17a:	00 07       	.word	0x0700;	????	
 17c:	16 00       	.word	0x0016;	????	
 17e:	03 0e       	.word	0x0e03;	????	
 180:	3a 0b       	.word	0x0b3a;	????	
 182:	3b 0b       	.word	0x0b3b;	????	
 184:	49 13       	.word	0x1349;	????	
 186:	00 00       	.word	0x0000;	????	
 188:	08 0d       	.word	0x0d08;	????	
 18a:	00 03       	.word	0x0300;	????	
 18c:	0e 3a       	jl	$-994    	;abs 0xfdaa
 18e:	0b 3b       	jl	$-488    	;abs 0xffa6
 190:	0b 49       	mov	r9,	r11	
 192:	13 38       	jl	$+40     	;abs 0x1ba
 194:	0a 00       	.word	0x000a;	????	
 196:	00 09       	.word	0x0900;	????	
 198:	0f 00       	.word	0x000f;	????	
 19a:	0b 0b       	.word	0x0b0b;	????	
 19c:	49 13       	.word	0x1349;	????	
 19e:	00 00       	.word	0x0000;	????	
 1a0:	0a 26       	jz	$-1002   	;abs 0xfdb6
 1a2:	00 49       	br	r9		
 1a4:	13 00       	.word	0x0013;	????	
 1a6:	00 0b       	.word	0x0b00;	????	
 1a8:	15 01       	.word	0x0115;	????	
 1aa:	27 0c       	.word	0x0c27;	????	
 1ac:	49 13       	.word	0x1349;	????	
 1ae:	01 13       	reti			;return from interupt
 1b0:	00 00       	.word	0x0000;	????	
 1b2:	0c 05       	.word	0x050c;	????	
 1b4:	00 49       	br	r9		
 1b6:	13 00       	.word	0x0013;	????	
 1b8:	00 0d       	.word	0x0d00;	????	
 1ba:	24 00       	.word	0x0024;	????	
 1bc:	0b 0b       	.word	0x0b0b;	????	
 1be:	3e 0b       	.word	0x0b3e;	????	
 1c0:	03 08       	.word	0x0803;	????	
 1c2:	00 00       	.word	0x0000;	????	
 1c4:	0e 21       	jnz	$+542    	;abs 0x3e2
 1c6:	00 49       	br	r9		
 1c8:	13 00       	.word	0x0013;	????	
 1ca:	00 0f       	.word	0x0f00;	????	
 1cc:	2e 01       	.word	0x012e;	????	
 1ce:	3f 0c       	.word	0x0c3f;	????	
 1d0:	03 0e       	.word	0x0e03;	????	
 1d2:	3a 0b       	.word	0x0b3a;	????	
 1d4:	3b 0b       	.word	0x0b3b;	????	
 1d6:	27 0c       	.word	0x0c27;	????	
 1d8:	49 13       	.word	0x1349;	????	
 1da:	11 01       	.word	0x0111;	????	
 1dc:	12 01       	.word	0x0112;	????	
 1de:	40 0a       	.word	0x0a40;	????	
 1e0:	01 13       	reti			;return from interupt
 1e2:	00 00       	.word	0x0000;	????	
 1e4:	10 05       	.word	0x0510;	????	
 1e6:	00 03       	.word	0x0300;	????	
 1e8:	08 3a       	jl	$-1006   	;abs 0xfdfa
 1ea:	0b 3b       	jl	$-488    	;abs 0x2
 1ec:	0b 49       	mov	r9,	r11	
 1ee:	13 02       	.word	0x0213;	????	
 1f0:	06 00       	.word	0x0006;	????	
 1f2:	00 11       	rra	r0		
 1f4:	34 00       	.word	0x0034;	????	
 1f6:	03 08       	.word	0x0803;	????	
 1f8:	3a 0b       	.word	0x0b3a;	????	
 1fa:	3b 0b       	.word	0x0b3b;	????	
 1fc:	49 13       	.word	0x1349;	????	
 1fe:	02 06       	.word	0x0602;	????	
 200:	00 00       	.word	0x0000;	????	
 202:	12 2e       	jc	$-986    	;abs 0xfe28
 204:	01 3f       	jmp	$-508    	;abs 0x8
 206:	0c 03       	.word	0x030c;	????	
 208:	0e 3a       	jl	$-994    	;abs 0xfe26
 20a:	0b 3b       	jl	$-488    	;abs 0x22
 20c:	0b 27       	jz	$-488    	;abs 0x24
 20e:	0c 49       	mov	r9,	r12	
 210:	13 11       	rra	#1		;r3 As==01
 212:	01 12       	push	r1		
 214:	01 40       	mov	r0,	r1	
 216:	06 01       	.word	0x0106;	????	
 218:	13 00       	.word	0x0013;	????	
 21a:	00 13       	reti			
 21c:	05 00       	.word	0x0005;	????	
 21e:	03 0e       	.word	0x0e03;	????	
 220:	3a 0b       	.word	0x0b3a;	????	
 222:	3b 0b       	.word	0x0b3b;	????	
 224:	49 13       	.word	0x1349;	????	
 226:	02 06       	.word	0x0602;	????	
 228:	00 00       	.word	0x0000;	????	
 22a:	14 05       	.word	0x0514;	????	
 22c:	00 03       	.word	0x0300;	????	
 22e:	0e 3a       	jl	$-994    	;abs 0xfe4c
 230:	0b 3b       	jl	$-488    	;abs 0x48
 232:	0b 49       	mov	r9,	r11	
 234:	13 02       	.word	0x0213;	????	
 236:	0a 00       	.word	0x000a;	????	
 238:	00 15       	.word	0x1500;	????	
 23a:	05 00       	.word	0x0005;	????	
 23c:	03 08       	.word	0x0803;	????	
 23e:	3a 0b       	.word	0x0b3a;	????	
 240:	3b 0b       	.word	0x0b3b;	????	
 242:	49 13       	.word	0x1349;	????	
 244:	02 0a       	.word	0x0a02;	????	
 246:	00 00       	.word	0x0000;	????	
 248:	16 34       	jge	$+46     	;abs 0x276
 24a:	00 03       	.word	0x0300;	????	
 24c:	0e 3a       	jl	$-994    	;abs 0xfe6a
 24e:	0b 3b       	jl	$-488    	;abs 0x66
 250:	0b 49       	mov	r9,	r11	
 252:	13 02       	.word	0x0213;	????	
 254:	06 00       	.word	0x0006;	????	
 256:	00 17       	.word	0x1700;	????	
 258:	34 00       	.word	0x0034;	????	
 25a:	03 0e       	.word	0x0e03;	????	
 25c:	3a 0b       	.word	0x0b3a;	????	
 25e:	3b 0b       	.word	0x0b3b;	????	
 260:	49 13       	.word	0x1349;	????	
 262:	02 0a       	.word	0x0a02;	????	
 264:	00 00       	.word	0x0000;	????	
 266:	00 01       	.word	0x0100;	????	
 268:	11 01       	.word	0x0111;	????	
 26a:	25 0e       	.word	0x0e25;	????	
 26c:	13 0b       	.word	0x0b13;	????	
 26e:	03 0e       	.word	0x0e03;	????	
 270:	1b 0e       	.word	0x0e1b;	????	
 272:	11 01       	.word	0x0111;	????	
 274:	12 01       	.word	0x0112;	????	
 276:	10 06       	.word	0x0610;	????	
 278:	00 00       	.word	0x0000;	????	
 27a:	02 16       	.word	0x1602;	????	
 27c:	00 03       	.word	0x0300;	????	
 27e:	0e 3a       	jl	$-994    	;abs 0xfe9c
 280:	0b 3b       	jl	$-488    	;abs 0x98
 282:	0b 49       	mov	r9,	r11	
 284:	13 00       	.word	0x0013;	????	
 286:	00 03       	.word	0x0300;	????	
 288:	0f 00       	.word	0x000f;	????	
 28a:	0b 0b       	.word	0x0b0b;	????	
 28c:	03 0e       	.word	0x0e03;	????	
 28e:	00 00       	.word	0x0000;	????	
 290:	04 2e       	jc	$-1014   	;abs 0xfe9a
 292:	01 03       	.word	0x0301;	????	
 294:	0e 3a       	jl	$-994    	;abs 0xfeb2
 296:	0b 3b       	jl	$-488    	;abs 0xae
 298:	0b 27       	jz	$-488    	;abs 0xb0
 29a:	0c 11       	rra	r12		
 29c:	01 12       	push	r1		
 29e:	01 40       	mov	r0,	r1	
 2a0:	06 01       	.word	0x0106;	????	
 2a2:	13 00       	.word	0x0013;	????	
 2a4:	00 05       	.word	0x0500;	????	
 2a6:	05 00       	.word	0x0005;	????	
 2a8:	03 08       	.word	0x0803;	????	
 2aa:	3a 0b       	.word	0x0b3a;	????	
 2ac:	3b 0b       	.word	0x0b3b;	????	
 2ae:	49 13       	.word	0x1349;	????	
 2b0:	02 06       	.word	0x0602;	????	
 2b2:	00 00       	.word	0x0000;	????	
 2b4:	06 34       	jge	$+14     	;abs 0x2c2
 2b6:	00 03       	.word	0x0300;	????	
 2b8:	08 3a       	jl	$-1006   	;abs 0xfeca
 2ba:	0b 3b       	jl	$-488    	;abs 0xd2
 2bc:	0b 49       	mov	r9,	r11	
 2be:	13 02       	.word	0x0213;	????	
 2c0:	06 00       	.word	0x0006;	????	
 2c2:	00 07       	.word	0x0700;	????	
 2c4:	24 00       	.word	0x0024;	????	
 2c6:	0b 0b       	.word	0x0b0b;	????	
 2c8:	3e 0b       	.word	0x0b3e;	????	
 2ca:	03 0e       	.word	0x0e03;	????	
 2cc:	00 00       	.word	0x0000;	????	
 2ce:	08 0f       	.word	0x0f08;	????	
 2d0:	00 0b       	.word	0x0b00;	????	
 2d2:	0b 49       	mov	r9,	r11	
 2d4:	13 00       	.word	0x0013;	????	
 2d6:	00 09       	.word	0x0900;	????	
 2d8:	26 00       	.word	0x0026;	????	
 2da:	49 13       	.word	0x1349;	????	
 2dc:	00 00       	.word	0x0000;	????	
 2de:	0a 2e       	jc	$-1002   	;abs 0xfef4
 2e0:	01 03       	.word	0x0301;	????	
 2e2:	0e 3a       	jl	$-994    	;abs 0xff00
 2e4:	0b 3b       	jl	$-488    	;abs 0xfc
 2e6:	0b 27       	jz	$-488    	;abs 0xfe
 2e8:	0c 11       	rra	r12		
 2ea:	01 12       	push	r1		
 2ec:	01 40       	mov	r0,	r1	
 2ee:	0a 01       	.word	0x010a;	????	
 2f0:	13 00       	.word	0x0013;	????	
 2f2:	00 0b       	.word	0x0b00;	????	
 2f4:	34 00       	.word	0x0034;	????	
 2f6:	03 08       	.word	0x0803;	????	
 2f8:	3a 0b       	.word	0x0b3a;	????	
 2fa:	3b 0b       	.word	0x0b3b;	????	
 2fc:	49 13       	.word	0x1349;	????	
 2fe:	02 0a       	.word	0x0a02;	????	
 300:	00 00       	.word	0x0000;	????	
 302:	0c 01       	.word	0x010c;	????	
 304:	01 49       	mov	r9,	r1	
 306:	13 01       	.word	0x0113;	????	
 308:	13 00       	.word	0x0013;	????	
 30a:	00 0d       	.word	0x0d00;	????	
 30c:	21 00       	.word	0x0021;	????	
 30e:	49 13       	.word	0x1349;	????	
 310:	2f 0b       	.word	0x0b2f;	????	
 312:	00 00       	.word	0x0000;	????	
 314:	0e 2e       	jc	$-994    	;abs 0xff32
 316:	01 3f       	jmp	$-508    	;abs 0x11a
 318:	0c 03       	.word	0x030c;	????	
 31a:	0e 3a       	jl	$-994    	;abs 0xff38
 31c:	0b 3b       	jl	$-488    	;abs 0x134
 31e:	0b 27       	jz	$-488    	;abs 0x136
 320:	0c 11       	rra	r12		
 322:	01 12       	push	r1		
 324:	01 40       	mov	r0,	r1	
 326:	06 01       	.word	0x0106;	????	
 328:	13 00       	.word	0x0013;	????	
 32a:	00 0f       	.word	0x0f00;	????	
 32c:	05 00       	.word	0x0005;	????	
 32e:	03 0e       	.word	0x0e03;	????	
 330:	3a 0b       	.word	0x0b3a;	????	
 332:	3b 0b       	.word	0x0b3b;	????	
 334:	49 13       	.word	0x1349;	????	
 336:	02 06       	.word	0x0602;	????	
 338:	00 00       	.word	0x0000;	????	
 33a:	10 24       	jz	$+34     	;abs 0x35c
 33c:	00 0b       	.word	0x0b00;	????	
 33e:	0b 3e       	jmp	$-1000   	;abs 0xff56
 340:	0b 03       	.word	0x030b;	????	
 342:	08 00       	.word	0x0008;	????	
 344:	00 11       	rra	r0		
 346:	34 00       	.word	0x0034;	????	
 348:	03 0e       	.word	0x0e03;	????	
 34a:	3a 0b       	.word	0x0b3a;	????	
 34c:	3b 0b       	.word	0x0b3b;	????	
 34e:	49 13       	.word	0x1349;	????	
 350:	02 0a       	.word	0x0a02;	????	
 352:	00 00       	.word	0x0000;	????	
 354:	12 18       	.word	0x1812;	????	
 356:	00 00       	.word	0x0000;	????	
 358:	00 13       	reti			
 35a:	0a 00       	.word	0x000a;	????	
 35c:	03 0e       	.word	0x0e03;	????	
 35e:	3a 0b       	.word	0x0b3a;	????	
 360:	3b 0b       	.word	0x0b3b;	????	
 362:	11 01       	.word	0x0111;	????	
 364:	00 00       	.word	0x0000;	????	
 366:	00 01       	.word	0x0100;	????	
 368:	11 01       	.word	0x0111;	????	
 36a:	25 0e       	.word	0x0e25;	????	
 36c:	13 0b       	.word	0x0b13;	????	
 36e:	03 0e       	.word	0x0e03;	????	
 370:	1b 0e       	.word	0x0e1b;	????	
 372:	11 01       	.word	0x0111;	????	
 374:	12 01       	.word	0x0112;	????	
 376:	10 06       	.word	0x0610;	????	
 378:	00 00       	.word	0x0000;	????	
 37a:	02 2e       	jc	$-1018   	;abs 0xff80
 37c:	01 3f       	jmp	$-508    	;abs 0x180
 37e:	0c 03       	.word	0x030c;	????	
 380:	0e 3a       	jl	$-994    	;abs 0xff9e
 382:	0b 3b       	jl	$-488    	;abs 0x19a
 384:	0b 27       	jz	$-488    	;abs 0x19c
 386:	0c 11       	rra	r12		
 388:	01 12       	push	r1		
 38a:	01 40       	mov	r0,	r1	
 38c:	0a 01       	.word	0x010a;	????	
 38e:	13 00       	.word	0x0013;	????	
 390:	00 03       	.word	0x0300;	????	
 392:	05 00       	.word	0x0005;	????	
 394:	03 08       	.word	0x0803;	????	
 396:	3a 0b       	.word	0x0b3a;	????	
 398:	3b 0b       	.word	0x0b3b;	????	
 39a:	49 13       	.word	0x1349;	????	
 39c:	02 06       	.word	0x0602;	????	
 39e:	00 00       	.word	0x0000;	????	
 3a0:	04 24       	jz	$+10     	;abs 0x3aa
 3a2:	00 0b       	.word	0x0b00;	????	
 3a4:	0b 3e       	jmp	$-1000   	;abs 0xffbc
 3a6:	0b 03       	.word	0x030b;	????	
 3a8:	0e 00       	.word	0x000e;	????	
 3aa:	00 05       	.word	0x0500;	????	
 3ac:	2e 00       	.word	0x002e;	????	
 3ae:	3f 0c       	.word	0x0c3f;	????	
 3b0:	03 0e       	.word	0x0e03;	????	
 3b2:	3a 0b       	.word	0x0b3a;	????	
 3b4:	3b 0b       	.word	0x0b3b;	????	
 3b6:	49 13       	.word	0x1349;	????	
 3b8:	11 01       	.word	0x0111;	????	
 3ba:	12 01       	.word	0x0112;	????	
 3bc:	40 0a       	.word	0x0a40;	????	
 3be:	00 00       	.word	0x0000;	????	
 3c0:	00 01       	.word	0x0100;	????	
 3c2:	11 01       	.word	0x0111;	????	
 3c4:	25 0e       	.word	0x0e25;	????	
 3c6:	13 0b       	.word	0x0b13;	????	
 3c8:	03 0e       	.word	0x0e03;	????	
 3ca:	1b 0e       	.word	0x0e1b;	????	
 3cc:	11 01       	.word	0x0111;	????	
 3ce:	12 01       	.word	0x0112;	????	
 3d0:	10 06       	.word	0x0610;	????	
 3d2:	00 00       	.word	0x0000;	????	
 3d4:	02 24       	jz	$+6      	;abs 0x3da
 3d6:	00 0b       	.word	0x0b00;	????	
 3d8:	0b 3e       	jmp	$-1000   	;abs 0xfff0
 3da:	0b 03       	.word	0x030b;	????	
 3dc:	0e 00       	.word	0x000e;	????	
 3de:	00 03       	.word	0x0300;	????	
 3e0:	24 00       	.word	0x0024;	????	
 3e2:	0b 0b       	.word	0x0b0b;	????	
 3e4:	3e 0b       	.word	0x0b3e;	????	
 3e6:	03 08       	.word	0x0803;	????	
 3e8:	00 00       	.word	0x0000;	????	
 3ea:	04 2e       	jc	$-1014   	;abs 0xfff4
 3ec:	01 3f       	jmp	$-508    	;abs 0x1f0
 3ee:	0c 03       	.word	0x030c;	????	
 3f0:	0e 3a       	jl	$-994    	;abs 0xe
 3f2:	0b 3b       	jl	$-488    	;abs 0x20a
 3f4:	0b 27       	jz	$-488    	;abs 0x20c
 3f6:	0c 11       	rra	r12		
 3f8:	01 12       	push	r1		
 3fa:	01 40       	mov	r0,	r1	
 3fc:	0a 01       	.word	0x010a;	????	
 3fe:	13 00       	.word	0x0013;	????	
 400:	00 05       	.word	0x0500;	????	
 402:	05 00       	.word	0x0005;	????	
 404:	03 0e       	.word	0x0e03;	????	
 406:	3a 0b       	.word	0x0b3a;	????	
 408:	3b 0b       	.word	0x0b3b;	????	
 40a:	49 13       	.word	0x1349;	????	
 40c:	02 0a       	.word	0x0a02;	????	
 40e:	00 00       	.word	0x0000;	????	
 410:	06 05       	.word	0x0506;	????	
 412:	00 03       	.word	0x0300;	????	
 414:	0e 3a       	jl	$-994    	;abs 0x32
 416:	0b 3b       	jl	$-488    	;abs 0x22e
 418:	0b 49       	mov	r9,	r11	
 41a:	13 02       	.word	0x0213;	????	
 41c:	06 00       	.word	0x0006;	????	
 41e:	00 07       	.word	0x0700;	????	
 420:	2e 00       	.word	0x002e;	????	
 422:	3f 0c       	.word	0x0c3f;	????	
 424:	03 0e       	.word	0x0e03;	????	
 426:	3a 0b       	.word	0x0b3a;	????	
 428:	3b 0b       	.word	0x0b3b;	????	
 42a:	49 13       	.word	0x1349;	????	
 42c:	11 01       	.word	0x0111;	????	
 42e:	12 01       	.word	0x0112;	????	
 430:	40 0a       	.word	0x0a40;	????	
 432:	00 00       	.word	0x0000;	????	
 434:	08 34       	jge	$+18     	;abs 0x446
 436:	00 03       	.word	0x0300;	????	
 438:	0e 3a       	jl	$-994    	;abs 0x56
 43a:	0b 3b       	jl	$-488    	;abs 0x252
 43c:	0b 87       	sub	r7,	r11	
 43e:	40 0e       	.word	0x0e40;	????	
 440:	49 13       	.word	0x1349;	????	
 442:	3f 0c       	.word	0x0c3f;	????	
 444:	3c 0c       	.word	0x0c3c;	????	
 446:	00 00       	.word	0x0000;	????	
 448:	09 35       	jge	$+532    	;abs 0x65c
 44a:	00 49       	br	r9		
 44c:	13 00       	.word	0x0013;	????	
 44e:	00 0a       	.word	0x0a00;	????	
 450:	34 00       	.word	0x0034;	????	
 452:	03 0e       	.word	0x0e03;	????	
 454:	3a 0b       	.word	0x0b3a;	????	
 456:	3b 05       	.word	0x053b;	????	
 458:	87 40 0e 49 	mov	r0,	18702(r7);0x490e(r7)
 45c:	13 3f       	jmp	$-472    	;abs 0x284
 45e:	0c 3c       	jmp	$+26     	;abs 0x478
 460:	0c 00       	.word	0x000c;	????	
 462:	00 0b       	.word	0x0b00;	????	
 464:	26 00       	.word	0x0026;	????	
 466:	49 13       	.word	0x1349;	????	
 468:	00 00       	.word	0x0000;	????	
 46a:	00 01       	.word	0x0100;	????	
 46c:	11 00       	.word	0x0011;	????	
 46e:	10 06       	.word	0x0610;	????	
 470:	11 01       	.word	0x0111;	????	
 472:	12 01       	.word	0x0112;	????	
 474:	03 08       	.word	0x0803;	????	
 476:	1b 08       	.word	0x081b;	????	
 478:	25 08       	.word	0x0825;	????	
 47a:	13 05       	.word	0x0513;	????	
 47c:	00 00       	.word	0x0000;	????	
 47e:	00 01       	.word	0x0100;	????	
 480:	11 00       	.word	0x0011;	????	
 482:	10 06       	.word	0x0610;	????	
 484:	11 01       	.word	0x0111;	????	
 486:	12 01       	.word	0x0112;	????	
 488:	03 08       	.word	0x0803;	????	
 48a:	1b 08       	.word	0x081b;	????	
 48c:	25 08       	.word	0x0825;	????	
 48e:	13 05       	.word	0x0513;	????	
 490:	00 00       	.word	0x0000;	????	
 492:	00 01       	.word	0x0100;	????	
 494:	11 01       	.word	0x0111;	????	
 496:	25 0e       	.word	0x0e25;	????	
 498:	13 0b       	.word	0x0b13;	????	
 49a:	03 0e       	.word	0x0e03;	????	
 49c:	1b 0e       	.word	0x0e1b;	????	
 49e:	11 01       	.word	0x0111;	????	
 4a0:	12 01       	.word	0x0112;	????	
 4a2:	10 06       	.word	0x0610;	????	
 4a4:	00 00       	.word	0x0000;	????	
 4a6:	02 24       	jz	$+6      	;abs 0x4ac
 4a8:	00 0b       	.word	0x0b00;	????	
 4aa:	0b 3e       	jmp	$-1000   	;abs 0xc2
 4ac:	0b 03       	.word	0x030b;	????	
 4ae:	0e 00       	.word	0x000e;	????	
 4b0:	00 03       	.word	0x0300;	????	
 4b2:	24 00       	.word	0x0024;	????	
 4b4:	0b 0b       	.word	0x0b0b;	????	
 4b6:	3e 0b       	.word	0x0b3e;	????	
 4b8:	03 08       	.word	0x0803;	????	
 4ba:	00 00       	.word	0x0000;	????	
 4bc:	04 16       	.word	0x1604;	????	
 4be:	00 03       	.word	0x0300;	????	
 4c0:	0e 3a       	jl	$-994    	;abs 0xde
 4c2:	0b 3b       	jl	$-488    	;abs 0x2da
 4c4:	0b 49       	mov	r9,	r11	
 4c6:	13 00       	.word	0x0013;	????	
 4c8:	00 05       	.word	0x0500;	????	
 4ca:	2e 01       	.word	0x012e;	????	
 4cc:	3f 0c       	.word	0x0c3f;	????	
 4ce:	03 0e       	.word	0x0e03;	????	
 4d0:	3a 0b       	.word	0x0b3a;	????	
 4d2:	3b 0b       	.word	0x0b3b;	????	
 4d4:	27 0c       	.word	0x0c27;	????	
 4d6:	49 13       	.word	0x1349;	????	
 4d8:	11 01       	.word	0x0111;	????	
 4da:	12 01       	.word	0x0112;	????	
 4dc:	40 06       	.word	0x0640;	????	
 4de:	01 13       	reti			;return from interupt
 4e0:	00 00       	.word	0x0000;	????	
 4e2:	06 05       	.word	0x0506;	????	
 4e4:	00 03       	.word	0x0300;	????	
 4e6:	0e 3a       	jl	$-994    	;abs 0x104
 4e8:	0b 3b       	jl	$-488    	;abs 0x300
 4ea:	0b 49       	mov	r9,	r11	
 4ec:	13 02       	.word	0x0213;	????	
 4ee:	0a 00       	.word	0x000a;	????	
 4f0:	00 07       	.word	0x0700;	????	
 4f2:	05 00       	.word	0x0005;	????	
 4f4:	03 08       	.word	0x0803;	????	
 4f6:	3a 0b       	.word	0x0b3a;	????	
 4f8:	3b 0b       	.word	0x0b3b;	????	
 4fa:	49 13       	.word	0x1349;	????	
 4fc:	02 06       	.word	0x0602;	????	
 4fe:	00 00       	.word	0x0000;	????	
 500:	08 05       	.word	0x0508;	????	
 502:	00 03       	.word	0x0300;	????	
 504:	0e 3a       	jl	$-994    	;abs 0x122
 506:	0b 3b       	jl	$-488    	;abs 0x31e
 508:	0b 49       	mov	r9,	r11	
 50a:	13 02       	.word	0x0213;	????	
 50c:	06 00       	.word	0x0006;	????	
 50e:	00 09       	.word	0x0900;	????	
 510:	34 00       	.word	0x0034;	????	
 512:	03 08       	.word	0x0803;	????	
 514:	3a 0b       	.word	0x0b3a;	????	
 516:	3b 0b       	.word	0x0b3b;	????	
 518:	49 13       	.word	0x1349;	????	
 51a:	02 06       	.word	0x0602;	????	
 51c:	00 00       	.word	0x0000;	????	
 51e:	0a 0f       	.word	0x0f0a;	????	
 520:	00 0b       	.word	0x0b00;	????	
 522:	0b 00       	.word	0x000b;	????	
 524:	00 0b       	.word	0x0b00;	????	
 526:	0f 00       	.word	0x000f;	????	
 528:	0b 0b       	.word	0x0b0b;	????	
 52a:	49 13       	.word	0x1349;	????	
 52c:	00 00       	.word	0x0000;	????	
 52e:	00 01       	.word	0x0100;	????	
 530:	11 00       	.word	0x0011;	????	
 532:	10 06       	.word	0x0610;	????	
 534:	11 01       	.word	0x0111;	????	
 536:	12 01       	.word	0x0112;	????	
 538:	03 08       	.word	0x0803;	????	
 53a:	1b 08       	.word	0x081b;	????	
 53c:	25 08       	.word	0x0825;	????	
 53e:	13 05       	.word	0x0513;	????	
 540:	00 00       	.word	0x0000;	????	
 542:	00 01       	.word	0x0100;	????	
 544:	11 00       	.word	0x0011;	????	
 546:	10 06       	.word	0x0610;	????	
 548:	11 01       	.word	0x0111;	????	
 54a:	12 01       	.word	0x0112;	????	
 54c:	03 08       	.word	0x0803;	????	
 54e:	1b 08       	.word	0x081b;	????	
 550:	25 08       	.word	0x0825;	????	
 552:	13 05       	.word	0x0513;	????	
 554:	00 00       	.word	0x0000;	????	
 556:	00 01       	.word	0x0100;	????	
 558:	11 00       	.word	0x0011;	????	
 55a:	10 06       	.word	0x0610;	????	
 55c:	11 01       	.word	0x0111;	????	
 55e:	12 01       	.word	0x0112;	????	
 560:	03 08       	.word	0x0803;	????	
 562:	1b 08       	.word	0x081b;	????	
 564:	25 08       	.word	0x0825;	????	
 566:	13 05       	.word	0x0513;	????	
 568:	00 00       	.word	0x0000;	????	
 56a:	00 01       	.word	0x0100;	????	
 56c:	11 00       	.word	0x0011;	????	
 56e:	10 06       	.word	0x0610;	????	
 570:	11 01       	.word	0x0111;	????	
 572:	12 01       	.word	0x0112;	????	
 574:	03 08       	.word	0x0803;	????	
 576:	1b 08       	.word	0x081b;	????	
 578:	25 08       	.word	0x0825;	????	
 57a:	13 05       	.word	0x0513;	????	
 57c:	00 00       	.word	0x0000;	????	
 57e:	00 01       	.word	0x0100;	????	
 580:	11 00       	.word	0x0011;	????	
 582:	10 06       	.word	0x0610;	????	
 584:	11 01       	.word	0x0111;	????	
 586:	12 01       	.word	0x0112;	????	
 588:	03 08       	.word	0x0803;	????	
 58a:	1b 08       	.word	0x081b;	????	
 58c:	25 08       	.word	0x0825;	????	
 58e:	13 05       	.word	0x0513;	????	
 590:	00 00       	.word	0x0000;	????	
 592:	00 01       	.word	0x0100;	????	
 594:	11 00       	.word	0x0011;	????	
 596:	10 06       	.word	0x0610;	????	
 598:	11 01       	.word	0x0111;	????	
 59a:	12 01       	.word	0x0112;	????	
 59c:	03 08       	.word	0x0803;	????	
 59e:	1b 08       	.word	0x081b;	????	
 5a0:	25 08       	.word	0x0825;	????	
 5a2:	13 05       	.word	0x0513;	????	
 5a4:	00 00       	.word	0x0000;	????	
	...

Disassembly of section .debug_line:

00000000 <.debug_line>:
   0:	21 02       	.word	0x0221;	????	
   2:	00 00       	.word	0x0000;	????	
   4:	02 00       	.word	0x0002;	????	
   6:	5f 01       	.word	0x015f;	????	
   8:	00 00       	.word	0x0000;	????	
   a:	01 01       	.word	0x0101;	????	
   c:	fb 0e       	.word	0x0efb;	????	
   e:	0d 00       	.word	0x000d;	????	
  10:	01 01       	.word	0x0101;	????	
  12:	01 01       	.word	0x0101;	????	
  14:	00 00       	.word	0x0000;	????	
  16:	00 01       	.word	0x0100;	????	
  18:	00 00       	.word	0x0000;	????	
  1a:	01 2f       	jc	$-508    	;abs 0xfe1e
  1c:	55 73       	subc.b	#1,	r5	;r3 As==01
  1e:	65 72       	subc.b	#4,	r5	;r2 As==10
  20:	73 2f       	jc	$-280    	;abs 0xff08
  22:	44 61       	addc.b	r1,	r4	
  24:	6e 69       	addc.b	@r9,	r14	
  26:	65 6c       	addc.b	@r12,	r5	
  28:	2f 41       	mov	@r1,	r15	
  2a:	70 70 6c 69 	subc.b	#26988,	r0	;#0x696c
  2e:	63 61       	.word	0x6163;	????	Illegal as 2-op instr
  30:	74 69       	addc.b	@r9+,	r4	
  32:	6f 6e       	addc.b	@r14,	r15	
  34:	73 2f       	jc	$-280    	;abs 0xff1c
  36:	45 6e       	addc.b	r14,	r5	
  38:	65 72       	subc.b	#4,	r5	;r2 As==10
  3a:	67 69       	addc.b	@r9,	r7	
  3c:	61 2e       	jc	$-828    	;abs 0xfd00
  3e:	61 70       	subc.b	@r0,	r1	
  40:	70 2f       	jc	$-286    	;abs 0xff22
  42:	43 6f       	.word	0x6f43;	????	Illegal as 2-op instr
  44:	6e 74       	subc.b	@r4,	r14	
  46:	65 6e       	addc.b	@r14,	r5	
  48:	74 73       	subc.b	#-1,	r4	;r3 As==11
  4a:	2f 52       	add	#4,	r15	;r2 As==10
  4c:	65 73       	subc.b	#2,	r5	;r3 As==10
  4e:	6f 75       	subc.b	@r5,	r15	
  50:	72 63       	addc.b	#-1,	r2	;r3 As==11
  52:	65 73       	subc.b	#2,	r5	;r3 As==10
  54:	2f 4a       	mov	@r10,	r15	
  56:	61 76       	subc.b	@r6,	r1	
  58:	61 2f       	jc	$-316    	;abs 0xff1c
  5a:	68 61       	addc.b	@r1,	r8	
  5c:	72 64       	addc.b	@r4+,	r2	
  5e:	77 61       	addc.b	@r1+,	r7	
  60:	72 65       	addc.b	@r5+,	r2	
  62:	2f 74       	subc	@r4,	r15	
  64:	6f 6f       	addc.b	@r15,	r15	
  66:	6c 73       	subc.b	#2,	r12	;r3 As==10
  68:	2f 6d       	addc	@r13,	r15	
  6a:	73 70       	.word	0x7073;	????	Illegal as 2-op instr
  6c:	34 33       	jn	$-406    	;abs 0xfed6
  6e:	30 2f       	jc	$-414    	;abs 0xfed0
  70:	62 69       	addc.b	@r9,	r2	
  72:	6e 2f       	jc	$-290    	;abs 0xff50
  74:	2e 2e       	jc	$-930    	;abs 0xfcd2
  76:	2f 6c       	addc	@r12,	r15	
  78:	69 62       	addc.b	#4,	r9	;r2 As==10
  7a:	2f 67       	addc	@r7,	r15	
  7c:	63 63       	.word	0x6363;	????	Illegal as 2-op instr
  7e:	2f 6d       	addc	@r13,	r15	
  80:	73 70       	.word	0x7073;	????	Illegal as 2-op instr
  82:	34 33       	jn	$-406    	;abs 0xfeec
  84:	30 2f       	jc	$-414    	;abs 0xfee6
  86:	34 2e       	jc	$-918    	;abs 0xfcf0
  88:	36 2e       	jc	$-914    	;abs 0xfcf6
  8a:	33 2f       	jc	$-408    	;abs 0xfef2
  8c:	2e 2e       	jc	$-930    	;abs 0xfcea
  8e:	2f 2e       	jc	$-928    	;abs 0xfcee
  90:	2e 2f       	jc	$-418    	;abs 0xfeee
  92:	2e 2e       	jc	$-930    	;abs 0xfcf0
  94:	2f 2e       	jc	$-928    	;abs 0xfcf4
  96:	2e 2f       	jc	$-418    	;abs 0xfef4
  98:	6d 73       	subc.b	#2,	r13	;r3 As==10
  9a:	70 34       	jge	$+226    	;abs 0x17c
  9c:	33 30       	jn	$+104    	;abs 0x104
  9e:	2f 69       	addc	@r9,	r15	
  a0:	6e 63       	addc.b	#2,	r14	;r3 As==10
  a2:	6c 75       	subc.b	@r5,	r12	
  a4:	64 65       	addc.b	@r5,	r4	
  a6:	2f 6c       	addc	@r12,	r15	
  a8:	69 62       	addc.b	#4,	r9	;r2 As==10
  aa:	65 6d       	addc.b	@r13,	r5	
  ac:	62 2f       	jc	$-314    	;abs 0xff72
  ae:	73 68       	.word	0x6873;	????	Illegal as 2-op instr
  b0:	65 6c       	addc.b	@r12,	r5	
  b2:	6c 00       	.word	0x006c;	????	
  b4:	2f 55       	add	@r5,	r15	
  b6:	73 65       	.word	0x6573;	????	Illegal as 2-op instr
  b8:	72 73       	subc.b	#-1,	r2	;r3 As==11
  ba:	2f 44       	mov	@r4,	r15	
  bc:	61 6e       	addc.b	@r14,	r1	
  be:	69 65       	addc.b	@r5,	r9	
  c0:	6c 2f       	jc	$-294    	;abs 0xff9a
  c2:	41 70       	subc.b	r0,	r1	
  c4:	70 6c       	addc.b	@r12+,	r0	
  c6:	69 63       	addc.b	#2,	r9	;r3 As==10
  c8:	61 74       	subc.b	@r4,	r1	
  ca:	69 6f       	addc.b	@r15,	r9	
  cc:	6e 73       	subc.b	#2,	r14	;r3 As==10
  ce:	2f 45       	mov	@r5,	r15	
  d0:	6e 65       	addc.b	@r5,	r14	
  d2:	72 67       	addc.b	@r7+,	r2	
  d4:	69 61       	addc.b	@r1,	r9	
  d6:	2e 61       	addc	@r1,	r14	
  d8:	70 70 2f 43 	subc.b	#17199,	r0	;#0x432f
  dc:	6f 6e       	addc.b	@r14,	r15	
  de:	74 65       	addc.b	@r5+,	r4	
  e0:	6e 74       	subc.b	@r4,	r14	
  e2:	73 2f       	jc	$-280    	;abs 0xffca
  e4:	52 65 73 6f 	addc.b	28531(r5),r2	;0x6f73(r5)
  e8:	75 72       	subc.b	#8,	r5	;r2 As==11
  ea:	63 65       	.word	0x6563;	????	Illegal as 2-op instr
  ec:	73 2f       	jc	$-280    	;abs 0xffd4
  ee:	4a 61       	addc.b	r1,	r10	
  f0:	76 61       	addc.b	@r1+,	r6	
  f2:	2f 68       	addc	@r8,	r15	
  f4:	61 72       	subc.b	#4,	r1	;r2 As==10
  f6:	64 77       	subc.b	@r7,	r4	
  f8:	61 72       	subc.b	#4,	r1	;r2 As==10
  fa:	65 2f       	jc	$-308    	;abs 0xffc6
  fc:	74 6f       	addc.b	@r15+,	r4	
  fe:	6f 6c       	addc.b	@r12,	r15	
 100:	73 2f       	jc	$-280    	;abs 0xffe8
 102:	6d 73       	subc.b	#2,	r13	;r3 As==10
 104:	70 34       	jge	$+226    	;abs 0x1e6
 106:	33 30       	jn	$+104    	;abs 0x16e
 108:	2f 62       	addc	#4,	r15	;r2 As==10
 10a:	69 6e       	addc.b	@r14,	r9	
 10c:	2f 2e       	jc	$-928    	;abs 0xfd6c
 10e:	2e 2f       	jc	$-418    	;abs 0xff6c
 110:	6c 69       	addc.b	@r9,	r12	
 112:	62 2f       	jc	$-314    	;abs 0xffd8
 114:	67 63       	addc.b	#2,	r7	;r3 As==10
 116:	63 2f       	jc	$-312    	;abs 0xffde
 118:	6d 73       	subc.b	#2,	r13	;r3 As==10
 11a:	70 34       	jge	$+226    	;abs 0x1fc
 11c:	33 30       	jn	$+104    	;abs 0x184
 11e:	2f 34       	jge	$+96     	;abs 0x17e
 120:	2e 36       	jge	$-930    	;abs 0xfd7e
 122:	2e 33       	jn	$-418    	;abs 0xff80
 124:	2f 2e       	jc	$-928    	;abs 0xfd84
 126:	2e 2f       	jc	$-418    	;abs 0xff84
 128:	2e 2e       	jc	$-930    	;abs 0xfd86
 12a:	2f 2e       	jc	$-928    	;abs 0xfd8a
 12c:	2e 2f       	jc	$-418    	;abs 0xff8a
 12e:	2e 2e       	jc	$-930    	;abs 0xfd8c
 130:	2f 6d       	addc	@r13,	r15	
 132:	73 70       	.word	0x7073;	????	Illegal as 2-op instr
 134:	34 33       	jn	$-406    	;abs 0xff9e
 136:	30 2f       	jc	$-414    	;abs 0xff98
 138:	69 6e       	addc.b	@r14,	r9	
 13a:	63 6c       	.word	0x6c63;	????	Illegal as 2-op instr
 13c:	75 64       	addc.b	@r4+,	r5	
 13e:	65 00       	.word	0x0065;	????	
 140:	00 73       	sbc	r0		
 142:	68 65       	addc.b	@r5,	r8	
 144:	6c 6c       	addc.b	@r12,	r12	
 146:	2e 63       	addc	#2,	r14	;r3 As==10
 148:	00 00       	.word	0x0000;	????	
 14a:	00 00       	.word	0x0000;	????	
 14c:	73 68       	.word	0x6873;	????	Illegal as 2-op instr
 14e:	65 6c       	addc.b	@r12,	r5	
 150:	6c 2e       	jc	$-806    	;abs 0xfe2a
 152:	68 00       	.word	0x0068;	????	
 154:	01 00       	.word	0x0001;	????	
 156:	00 6d       	addc	r13,	r0	
 158:	73 70       	.word	0x7073;	????	Illegal as 2-op instr
 15a:	34 33       	jn	$-406    	;abs 0xffc4
 15c:	30 67       	addc	@r7+,	r0	
 15e:	32 35       	jge	$+614    	;abs 0x3c4
 160:	35 33       	jn	$-404    	;abs 0xffcc
 162:	2e 68       	addc	@r8,	r14	
 164:	00 02       	.word	0x0200;	????	
 166:	00 00       	.word	0x0000;	????	
 168:	00 00       	.word	0x0000;	????	
 16a:	03 02       	.word	0x0203;	????	
 16c:	76 c1       	bic.b	@r1+,	r6	
 16e:	03 c5       	.word	0xc503;	????	Illegal as 2-op instr
 170:	00 01       	.word	0x0100;	????	
 172:	69 00       	.word	0x0069;	????	
 174:	02 04       	.word	0x0402;	????	
 176:	02 67       	addc	r7,	r2	
 178:	00 02       	.word	0x0200;	????	
 17a:	04 02       	.word	0x0204;	????	
 17c:	02 30       	jn	$+6      	;abs 0x182
 17e:	11 00       	.word	0x0011;	????	
 180:	02 04       	.word	0x0402;	????	
 182:	01 06       	.word	0x0601;	????	
 184:	4a 06       	.word	0x064a;	????	
 186:	be 2f       	jc	$-130    	;abs 0x104
 188:	4d 69       	addc.b	r9,	r13	
 18a:	84 00       	.word	0x0084;	????	
 18c:	02 04       	.word	0x0402;	????	
 18e:	02 67       	addc	r7,	r2	
 190:	00 02       	.word	0x0200;	????	
 192:	04 02       	.word	0x0204;	????	
 194:	08 ab       	dadd	r11,	r8	
 196:	00 02       	.word	0x0200;	????	
 198:	04 01       	.word	0x0104;	????	
 19a:	06 4a       	mov	r10,	r6	
 19c:	06 da       	bis	r10,	r6	
 19e:	2f 4d       	mov	@r13,	r15	
 1a0:	85 84 00 02 	sub	r4,	512(r5)	;0x0200(r5)
 1a4:	04 02       	.word	0x0204;	????	
 1a6:	67 00       	.word	0x0067;	????	
 1a8:	02 04       	.word	0x0402;	????	
 1aa:	02 08       	.word	0x0802;	????	
 1ac:	1f 00       	.word	0x001f;	????	
 1ae:	02 04       	.word	0x0402;	????	
 1b0:	01 06       	.word	0x0601;	????	
 1b2:	4a 06       	.word	0x064a;	????	
 1b4:	da 9f bb d8 	cmp.b	-10053(r15),26927(r10);0xd8bb(r15), 0x692f(r10)
 1b8:	2f 69 
 1ba:	67 9f       	cmp.b	@r15,	r7	
 1bc:	03 d2       	.word	0xd203;	????	Illegal as 2-op instr
 1be:	00 4a       	br	r10		
 1c0:	31 08       	.word	0x0831;	????	
 1c2:	75 08       	.word	0x0875;	????	
 1c4:	75 08       	.word	0x0875;	????	
 1c6:	75 08       	.word	0x0875;	????	
 1c8:	76 67       	addc.b	@r7+,	r6	
 1ca:	a0 00       	.word	0x00a0;	????	
 1cc:	02 04       	.word	0x0402;	????	
 1ce:	01 06       	.word	0x0601;	????	
 1d0:	82 06       	.word	0x0682;	????	
 1d2:	9f 4b 00 02 	mov	512(r11),260(r15);0x0200(r11), 0x0104(r15)
 1d6:	04 01 
 1d8:	06 82       	sub	r2,	r6	
 1da:	06 83       	sub	#0,	r6	;r3 As==00
 1dc:	68 08       	.word	0x0868;	????	
 1de:	3e 08       	.word	0x083e;	????	
 1e0:	ae 02       	.word	0x02ae;	????	
 1e2:	04 00       	.word	0x0004;	????	
 1e4:	01 01       	.word	0x0101;	????	
 1e6:	00 03       	.word	0x0300;	????	
 1e8:	02 3e       	jmp	$-1018   	;abs 0xfdee
 1ea:	c0 03       	.word	0x03c0;	????	
 1ec:	f8 00       	.word	0x00f8;	????	
 1ee:	01 4c       	mov	r12,	r1	
 1f0:	67 83       	decd.b	r7		
 1f2:	87 4b 4b bb 	mov	r11,	-17589(r7);0xbb4b(r7)
 1f6:	4b 69       	addc.b	r9,	r11	
 1f8:	67 67       	addc.b	@r7,	r7	
 1fa:	67 68       	addc.b	@r8,	r7	
 1fc:	83 36       	jge	$-760    	;abs 0xff04
 1fe:	4b 08       	.word	0x084b;	????	
 200:	22 83       	decd	r2		
 202:	83 2f       	jc	$-248    	;abs 0x10a
 204:	67 67       	addc.b	@r7,	r7	
 206:	f3 08       	.word	0x08f3;	????	
 208:	5b 08       	.word	0x085b;	????	
 20a:	92 00       	.word	0x0092;	????	
 20c:	02 04       	.word	0x0402;	????	
 20e:	01 03       	.word	0x0301;	????	
 210:	77 82       	sub.b	#8,	r7	;r2 As==11
 212:	03 0c       	.word	0x0c03;	????	
 214:	82 84 08 cb 	sub	r4,	&0xcb08	
 218:	83 30       	jn	$+264    	;abs 0x320
 21a:	83 30       	jn	$+264    	;abs 0x322
 21c:	83 30       	jn	$+264    	;abs 0x324
 21e:	30 83       	sub	#-1,	r0	;r3 As==11
 220:	02 02       	.word	0x0202;	????	
 222:	00 01       	.word	0x0100;	????	
 224:	01 fe       	and	r14,	r1	
 226:	00 00       	.word	0x0000;	????	
 228:	00 02       	.word	0x0200;	????	
 22a:	00 33       	jn	$-510    	;abs 0x2c
 22c:	00 00       	.word	0x0000;	????	
 22e:	00 01       	.word	0x0100;	????	
 230:	01 fb       	and	r11,	r1	
 232:	0e 0d       	.word	0x0d0e;	????	
 234:	00 01       	.word	0x0100;	????	
 236:	01 01       	.word	0x0101;	????	
 238:	01 00       	.word	0x0001;	????	
 23a:	00 00       	.word	0x0000;	????	
 23c:	01 00       	.word	0x0001;	????	
 23e:	00 01       	.word	0x0100;	????	
 240:	2e 2f       	jc	$-418    	;abs 0x9e
 242:	69 6e       	addc.b	@r14,	r9	
 244:	63 6c       	.word	0x6c63;	????	Illegal as 2-op instr
 246:	75 64       	addc.b	@r4+,	r5	
 248:	65 00       	.word	0x0065;	????	
 24a:	00 73       	sbc	r0		
 24c:	68 65       	addc.b	@r5,	r8	
 24e:	6c 6c       	addc.b	@r12,	r12	
 250:	2e 63       	addc	#2,	r14	;r3 As==10
 252:	00 00       	.word	0x0000;	????	
 254:	00 00       	.word	0x0000;	????	
 256:	73 68       	.word	0x6873;	????	Illegal as 2-op instr
 258:	65 6c       	addc.b	@r12,	r5	
 25a:	6c 2e       	jc	$-806    	;abs 0xff34
 25c:	68 00       	.word	0x0068;	????	
 25e:	01 00       	.word	0x0001;	????	
 260:	00 00       	.word	0x0000;	????	
 262:	00 03       	.word	0x0300;	????	
 264:	02 5c       	add	r12,	r2	
 266:	c3 03       	.word	0x03c3;	????	
 268:	16 01       	.word	0x0116;	????	
 26a:	2f 30       	jn	$+96     	;abs 0x2ca
 26c:	00 02       	.word	0x0200;	????	
 26e:	04 01       	.word	0x0104;	????	
 270:	06 4a       	mov	r10,	r6	
 272:	00 02       	.word	0x0200;	????	
 274:	04 01       	.word	0x0104;	????	
 276:	06 46       	mov	r6,	r6	
 278:	00 02       	.word	0x0200;	????	
 27a:	04 01       	.word	0x0104;	????	
 27c:	4e 69       	addc.b	r9,	r14	
 27e:	31 69       	addc	@r9+,	r1	
 280:	00 02       	.word	0x0200;	????	
 282:	04 01       	.word	0x0104;	????	
 284:	06 4a       	mov	r10,	r6	
 286:	06 46       	mov	r6,	r6	
 288:	89 65 00 02 	addc	r5,	512(r9)	;0x0200(r9)
 28c:	04 01       	.word	0x0104;	????	
 28e:	06 2e       	jc	$-1010   	;abs 0xfe9c
 290:	06 50       	add	r0,	r6	
 292:	00 02       	.word	0x0200;	????	
 294:	04 01       	.word	0x0104;	????	
 296:	06 4a       	mov	r10,	r6	
 298:	06 03       	.word	0x0306;	????	
 29a:	78 ba       	bit.b	@r10+,	r8	
 29c:	03 0c       	.word	0x0c03;	????	
 29e:	4a 47       	mov.b	r7,	r10	
 2a0:	32 85       	sub	@r5+,	r2	
 2a2:	14 33       	jn	$-470    	;abs 0xcc
 2a4:	4c bc       	bit.b	r12,	r12	
 2a6:	00 02       	.word	0x0200;	????	
 2a8:	04 01       	.word	0x0104;	????	
 2aa:	08 38       	jl	$+18     	;abs 0x2bc
 2ac:	6e 4d       	mov.b	@r13,	r14	
 2ae:	da 2d       	jc	$+950    	;abs 0x664
 2b0:	31 84       	sub	@r4+,	r1	
 2b2:	68 00       	.word	0x0068;	????	
 2b4:	02 04       	.word	0x0402;	????	
 2b6:	01 06       	.word	0x0601;	????	
 2b8:	ba 06       	.word	0x06ba;	????	
 2ba:	4c 00       	.word	0x004c;	????	
 2bc:	02 04       	.word	0x0402;	????	
 2be:	01 06       	.word	0x0601;	????	
 2c0:	4a 06       	.word	0x064a;	????	
 2c2:	31 4e       	mov	@r14+,	r1	
 2c4:	bc 03       	.word	0x03bc;	????	
 2c6:	6a 2e       	jc	$-810    	;abs 0xff9c
 2c8:	00 02       	.word	0x0200;	????	
 2ca:	04 02       	.word	0x0204;	????	
 2cc:	06 66       	rlc	r6		
 2ce:	00 02       	.word	0x0200;	????	
 2d0:	04 02       	.word	0x0204;	????	
 2d2:	06 03       	.word	0x0306;	????	
 2d4:	17 08       	.word	0x0817;	????	
 2d6:	20 00       	.word	0x0020;	????	
 2d8:	02 04       	.word	0x0402;	????	
 2da:	02 65       	addc	r5,	r2	
 2dc:	00 02       	.word	0x0200;	????	
 2de:	04 01       	.word	0x0104;	????	
 2e0:	06 2e       	jc	$-1010   	;abs 0xfeee
 2e2:	06 4d       	mov	r13,	r6	
 2e4:	03 78       	.word	0x7803;	????	Illegal as 2-op instr
 2e6:	08 3c       	jmp	$+18     	;abs 0x2f8
 2e8:	03 76       	.word	0x7603;	????	Illegal as 2-op instr
 2ea:	2e 00       	.word	0x002e;	????	
 2ec:	02 04       	.word	0x0402;	????	
 2ee:	01 06       	.word	0x0601;	????	
 2f0:	2e 06       	.word	0x062e;	????	
 2f2:	03 18       	.word	0x1803;	????	
 2f4:	4a 4c       	mov.b	r12,	r10	
 2f6:	03 68       	.word	0x6803;	????	Illegal as 2-op instr
 2f8:	4a 03       	.word	0x034a;	????	
 2fa:	0b 4a       	mov	r10,	r11	
 2fc:	03 0e       	.word	0x0e03;	????	
 2fe:	2e f5       	and	@r5,	r14	
 300:	03 19       	.word	0x1903;	????	
 302:	08 3c       	jmp	$+18     	;abs 0x314
 304:	03 6f       	.word	0x6f03;	????	Illegal as 2-op instr
 306:	2e 4c       	mov	@r12,	r14	
 308:	83 a0       	dadd	r0,	#1	;r3 As==01
 30a:	08 3d       	jmp	$+530    	;abs 0x51c
 30c:	a0 4c 4d 03 	mov	@r12,	845(r0)	;PC rel. 0x065b
 310:	73 08       	.word	0x0873;	????	
 312:	3c 00       	.word	0x003c;	????	
 314:	02 04       	.word	0x0402;	????	
 316:	01 06       	.word	0x0601;	????	
 318:	2e 06       	.word	0x062e;	????	
 31a:	03 11       	rra	#0		;r3 As==00
 31c:	66 03       	.word	0x0366;	????	
 31e:	78 66       	addc.b	@r6+,	r8	
 320:	68 51       	add.b	@r1,	r8	
 322:	02 12       	push	r2		
 324:	00 01       	.word	0x0100;	????	
 326:	01 5e       	add	r14,	r1	
 328:	01 00       	.word	0x0001;	????	
 32a:	00 02       	.word	0x0200;	????	
 32c:	00 a3       	dadc	r0		
 32e:	00 00       	.word	0x0000;	????	
 330:	00 01       	.word	0x0100;	????	
 332:	01 fb       	and	r11,	r1	
 334:	0e 0d       	.word	0x0d0e;	????	
 336:	00 01       	.word	0x0100;	????	
 338:	01 01       	.word	0x0101;	????	
 33a:	01 00       	.word	0x0001;	????	
 33c:	00 00       	.word	0x0000;	????	
 33e:	01 00       	.word	0x0001;	????	
 340:	00 01       	.word	0x0100;	????	
 342:	2f 55       	add	@r5,	r15	
 344:	73 65       	.word	0x6573;	????	Illegal as 2-op instr
 346:	72 73       	subc.b	#-1,	r2	;r3 As==11
 348:	2f 44       	mov	@r4,	r15	
 34a:	61 6e       	addc.b	@r14,	r1	
 34c:	69 65       	addc.b	@r5,	r9	
 34e:	6c 2f       	jc	$-294    	;abs 0x228
 350:	41 70       	subc.b	r0,	r1	
 352:	70 6c       	addc.b	@r12+,	r0	
 354:	69 63       	addc.b	#2,	r9	;r3 As==10
 356:	61 74       	subc.b	@r4,	r1	
 358:	69 6f       	addc.b	@r15,	r9	
 35a:	6e 73       	subc.b	#2,	r14	;r3 As==10
 35c:	2f 45       	mov	@r5,	r15	
 35e:	6e 65       	addc.b	@r5,	r14	
 360:	72 67       	addc.b	@r7+,	r2	
 362:	69 61       	addc.b	@r1,	r9	
 364:	2e 61       	addc	@r1,	r14	
 366:	70 70 2f 43 	subc.b	#17199,	r0	;#0x432f
 36a:	6f 6e       	addc.b	@r14,	r15	
 36c:	74 65       	addc.b	@r5+,	r4	
 36e:	6e 74       	subc.b	@r4,	r14	
 370:	73 2f       	jc	$-280    	;abs 0x258
 372:	52 65 73 6f 	addc.b	28531(r5),r2	;0x6f73(r5)
 376:	75 72       	subc.b	#8,	r5	;r2 As==11
 378:	63 65       	.word	0x6563;	????	Illegal as 2-op instr
 37a:	73 2f       	jc	$-280    	;abs 0x262
 37c:	4a 61       	addc.b	r1,	r10	
 37e:	76 61       	addc.b	@r1+,	r6	
 380:	2f 68       	addc	@r8,	r15	
 382:	61 72       	subc.b	#4,	r1	;r2 As==10
 384:	64 77       	subc.b	@r7,	r4	
 386:	61 72       	subc.b	#4,	r1	;r2 As==10
 388:	65 2f       	jc	$-308    	;abs 0x254
 38a:	74 6f       	addc.b	@r15+,	r4	
 38c:	6f 6c       	addc.b	@r12,	r15	
 38e:	73 2f       	jc	$-280    	;abs 0x276
 390:	6d 73       	subc.b	#2,	r13	;r3 As==10
 392:	70 34       	jge	$+226    	;abs 0x474
 394:	33 30       	jn	$+104    	;abs 0x3fc
 396:	2f 62       	addc	#4,	r15	;r2 As==10
 398:	69 6e       	addc.b	@r14,	r9	
 39a:	2f 2e       	jc	$-928    	;abs 0xfffa
 39c:	2e 2f       	jc	$-418    	;abs 0x1fa
 39e:	6c 69       	addc.b	@r9,	r12	
 3a0:	62 2f       	jc	$-314    	;abs 0x266
 3a2:	67 63       	addc.b	#2,	r7	;r3 As==10
 3a4:	63 2f       	jc	$-312    	;abs 0x26c
 3a6:	6d 73       	subc.b	#2,	r13	;r3 As==10
 3a8:	70 34       	jge	$+226    	;abs 0x48a
 3aa:	33 30       	jn	$+104    	;abs 0x412
 3ac:	2f 34       	jge	$+96     	;abs 0x40c
 3ae:	2e 36       	jge	$-930    	;abs 0xc
 3b0:	2e 33       	jn	$-418    	;abs 0x20e
 3b2:	2f 69       	addc	@r9,	r15	
 3b4:	6e 63       	addc.b	#2,	r14	;r3 As==10
 3b6:	6c 75       	subc.b	@r5,	r12	
 3b8:	64 65       	addc.b	@r5,	r4	
 3ba:	00 00       	.word	0x0000;	????	
 3bc:	63 6f       	.word	0x6f63;	????	Illegal as 2-op instr
 3be:	6e 69       	addc.b	@r9,	r14	
 3c0:	6f 2e       	jc	$-800    	;abs 0xa0
 3c2:	63 00       	.word	0x0063;	????	
 3c4:	00 00       	.word	0x0000;	????	
 3c6:	00 73       	sbc	r0		
 3c8:	74 64       	addc.b	@r4+,	r4	
 3ca:	61 72       	subc.b	#4,	r1	;r2 As==10
 3cc:	67 2e       	jc	$-816    	;abs 0x9c
 3ce:	68 00       	.word	0x0068;	????	
 3d0:	01 00       	.word	0x0001;	????	
 3d2:	00 00       	.word	0x0000;	????	
 3d4:	00 03       	.word	0x0300;	????	
 3d6:	02 1e       	.word	0x1e02;	????	
 3d8:	c5 03       	.word	0x03c5;	????	
 3da:	d9 00       	.word	0x00d9;	????	
 3dc:	01 f6       	and	r6,	r1	
 3de:	00 02       	.word	0x0200;	????	
 3e0:	04 02       	.word	0x0204;	????	
 3e2:	9f 00       	.word	0x009f;	????	
 3e4:	02 04       	.word	0x0402;	????	
 3e6:	01 06       	.word	0x0601;	????	
 3e8:	2e 06       	.word	0x062e;	????	
 3ea:	bc 4b 4b 00 	mov	@r11+,	75(r12)	;0x004b(r12)
 3ee:	02 04       	.word	0x0402;	????	
 3f0:	02 06       	.word	0x0602;	????	
 3f2:	2e 00       	.word	0x002e;	????	
 3f4:	02 04       	.word	0x0402;	????	
 3f6:	01 66       	addc	r6,	r1	
 3f8:	06 bb       	bit	r11,	r6	
 3fa:	4b d8       	bis.b	r8,	r11	
 3fc:	83 03       	.word	0x0383;	????	
 3fe:	6c ba       	bit.b	@r10,	r12	
 400:	14 bb 03 42 	bit	16899(r11),r4	;0x4203(r11)
 404:	2e 4d       	mov	@r13,	r14	
 406:	2f 00       	.word	0x002f;	????	
 408:	02 04       	.word	0x0402;	????	
 40a:	01 49       	mov	r9,	r1	
 40c:	69 4d       	mov.b	@r13,	r9	
 40e:	bf f3 83 00 	and	#-1,	131(r15);r3 As==11, 0x0083(r15)
 412:	02 04       	.word	0x0402;	????	
 414:	01 32       	jn	$-1020   	;abs 0x18
 416:	00 02       	.word	0x0200;	????	
 418:	04 01       	.word	0x0104;	????	
 41a:	08 21       	jnz	$+530    	;abs 0x62c
 41c:	00 02       	.word	0x0200;	????	
 41e:	04 01       	.word	0x0104;	????	
 420:	b8 00       	.word	0x00b8;	????	
 422:	02 04       	.word	0x0402;	????	
 424:	02 06       	.word	0x0602;	????	
 426:	82 06       	.word	0x0682;	????	
 428:	4f 00       	.word	0x004f;	????	
 42a:	02 04       	.word	0x0402;	????	
 42c:	02 03       	.word	0x0302;	????	
 42e:	70 66       	addc.b	@r6+,	r0	
 430:	00 02       	.word	0x0200;	????	
 432:	04 02       	.word	0x0204;	????	
 434:	03 11       	rra	#0		;r3 As==00
 436:	82 00       	.word	0x0082;	????	
 438:	02 04       	.word	0x0402;	????	
 43a:	01 06       	.word	0x0601;	????	
 43c:	66 00       	.word	0x0066;	????	
 43e:	02 04       	.word	0x0402;	????	
 440:	01 06       	.word	0x0601;	????	
 442:	49 69       	rlc.b	r9		
 444:	bd 69 4b 08 	addc	@r9+,	2123(r13);0x084b(r13)
 448:	59 68 7e 6e 	addc.b	28286(r8),r9	;0x6e7e(r8)
 44c:	03 29       	jnc	$+520    	;abs 0x654
 44e:	66 fa       	and.b	@r10,	r6	
 450:	2f 67       	addc	@r7,	r15	
 452:	02 44       	mov	r4,	r2	
 454:	14 bd bb 31 	bit	12731(r13),r4	;0x31bb(r13)
 458:	67 00       	.word	0x0067;	????	
 45a:	02 04       	.word	0x0402;	????	
 45c:	01 06       	.word	0x0601;	????	
 45e:	66 06       	.word	0x0666;	????	
 460:	f3 da       	bis.b	@r10+,	#1	;r3 As==01
 462:	9f 00       	.word	0x009f;	????	
 464:	02 04       	.word	0x0402;	????	
 466:	01 06       	.word	0x0601;	????	
 468:	66 06       	.word	0x0666;	????	
 46a:	08 ad       	dadd	r13,	r8	
 46c:	b8 31       	jn	$+882    	;abs 0x7de
 46e:	30 67       	addc	@r7+,	r0	
 470:	08 21       	jnz	$+530    	;abs 0x682
 472:	9f d7 03 66 	bis	26115(r7),898(r15);0x6603(r7), 0x0382(r15)
 476:	82 03 
 478:	23 2e       	jc	$-952    	;abs 0xc0
 47a:	00 02       	.word	0x0200;	????	
 47c:	04 01       	.word	0x0104;	????	
 47e:	03 5d       	.word	0x5d03;	????	Illegal as 2-op instr
 480:	4a 03       	.word	0x034a;	????	
 482:	26 66       	addc	@r6,	r6	
 484:	02 0a       	.word	0x0a02;	????	
 486:	00 01       	.word	0x0100;	????	
 488:	01 3d       	jmp	$+516    	;abs 0x68c
 48a:	00 00       	.word	0x0000;	????	
 48c:	00 02       	.word	0x0200;	????	
 48e:	00 25       	jz	$+514    	;abs 0x690
 490:	00 00       	.word	0x0000;	????	
 492:	00 01       	.word	0x0100;	????	
 494:	01 fb       	and	r11,	r1	
 496:	0e 0d       	.word	0x0d0e;	????	
 498:	00 01       	.word	0x0100;	????	
 49a:	01 01       	.word	0x0101;	????	
 49c:	01 00       	.word	0x0001;	????	
 49e:	00 00       	.word	0x0000;	????	
 4a0:	01 00       	.word	0x0001;	????	
 4a2:	00 01       	.word	0x0100;	????	
 4a4:	00 63       	adc	r0		
 4a6:	6f 6e       	addc.b	@r14,	r15	
 4a8:	69 6f       	addc.b	@r15,	r9	
 4aa:	5f 73       	subc.b	#1,	r15	;r3 As==01
 4ac:	65 72       	subc.b	#4,	r5	;r2 As==10
 4ae:	69 61       	addc.b	@r1,	r9	
 4b0:	6c 2e       	jc	$-806    	;abs 0x18a
 4b2:	63 00       	.word	0x0063;	????	
 4b4:	00 00       	.word	0x0000;	????	
 4b6:	00 00       	.word	0x0000;	????	
 4b8:	00 03       	.word	0x0300;	????	
 4ba:	02 88       	sub	r8,	r2	
 4bc:	c7 03       	.word	0x03c7;	????	
 4be:	17 01       	.word	0x0117;	????	
 4c0:	13 4b       	.word	0x4b13;	????	Illegal as 2-op instr
 4c2:	31 13       	reti			;return from interupt
 4c4:	4b 02       	.word	0x024b;	????	
 4c6:	02 00       	.word	0x0002;	????	
 4c8:	01 01       	.word	0x0101;	????	
 4ca:	14 01       	.word	0x0114;	????	
 4cc:	00 00       	.word	0x0000;	????	
 4ce:	02 00       	.word	0x0002;	????	
 4d0:	c8 00       	.word	0x00c8;	????	
 4d2:	00 00       	.word	0x0000;	????	
 4d4:	01 01       	.word	0x0101;	????	
 4d6:	fb 0e       	.word	0x0efb;	????	
 4d8:	0d 00       	.word	0x000d;	????	
 4da:	01 01       	.word	0x0101;	????	
 4dc:	01 01       	.word	0x0101;	????	
 4de:	00 00       	.word	0x0000;	????	
 4e0:	00 01       	.word	0x0100;	????	
 4e2:	00 00       	.word	0x0000;	????	
 4e4:	01 2f       	jc	$-508    	;abs 0x2e8
 4e6:	55 73       	subc.b	#1,	r5	;r3 As==01
 4e8:	65 72       	subc.b	#4,	r5	;r2 As==10
 4ea:	73 2f       	jc	$-280    	;abs 0x3d2
 4ec:	44 61       	addc.b	r1,	r4	
 4ee:	6e 69       	addc.b	@r9,	r14	
 4f0:	65 6c       	addc.b	@r12,	r5	
 4f2:	2f 41       	mov	@r1,	r15	
 4f4:	70 70 6c 69 	subc.b	#26988,	r0	;#0x696c
 4f8:	63 61       	.word	0x6163;	????	Illegal as 2-op instr
 4fa:	74 69       	addc.b	@r9+,	r4	
 4fc:	6f 6e       	addc.b	@r14,	r15	
 4fe:	73 2f       	jc	$-280    	;abs 0x3e6
 500:	45 6e       	addc.b	r14,	r5	
 502:	65 72       	subc.b	#4,	r5	;r2 As==10
 504:	67 69       	addc.b	@r9,	r7	
 506:	61 2e       	jc	$-828    	;abs 0x1ca
 508:	61 70       	subc.b	@r0,	r1	
 50a:	70 2f       	jc	$-286    	;abs 0x3ec
 50c:	43 6f       	.word	0x6f43;	????	Illegal as 2-op instr
 50e:	6e 74       	subc.b	@r4,	r14	
 510:	65 6e       	addc.b	@r14,	r5	
 512:	74 73       	subc.b	#-1,	r4	;r3 As==11
 514:	2f 52       	add	#4,	r15	;r2 As==10
 516:	65 73       	subc.b	#2,	r5	;r3 As==10
 518:	6f 75       	subc.b	@r5,	r15	
 51a:	72 63       	addc.b	#-1,	r2	;r3 As==11
 51c:	65 73       	subc.b	#2,	r5	;r3 As==10
 51e:	2f 4a       	mov	@r10,	r15	
 520:	61 76       	subc.b	@r6,	r1	
 522:	61 2f       	jc	$-316    	;abs 0x3e6
 524:	68 61       	addc.b	@r1,	r8	
 526:	72 64       	addc.b	@r4+,	r2	
 528:	77 61       	addc.b	@r1+,	r7	
 52a:	72 65       	addc.b	@r5+,	r2	
 52c:	2f 74       	subc	@r4,	r15	
 52e:	6f 6f       	addc.b	@r15,	r15	
 530:	6c 73       	subc.b	#2,	r12	;r3 As==10
 532:	2f 6d       	addc	@r13,	r15	
 534:	73 70       	.word	0x7073;	????	Illegal as 2-op instr
 536:	34 33       	jn	$-406    	;abs 0x3a0
 538:	30 2f       	jc	$-414    	;abs 0x39a
 53a:	62 69       	addc.b	@r9,	r2	
 53c:	6e 2f       	jc	$-290    	;abs 0x41a
 53e:	2e 2e       	jc	$-930    	;abs 0x19c
 540:	2f 6c       	addc	@r12,	r15	
 542:	69 62       	addc.b	#4,	r9	;r2 As==10
 544:	2f 67       	addc	@r7,	r15	
 546:	63 63       	.word	0x6363;	????	Illegal as 2-op instr
 548:	2f 6d       	addc	@r13,	r15	
 54a:	73 70       	.word	0x7073;	????	Illegal as 2-op instr
 54c:	34 33       	jn	$-406    	;abs 0x3b6
 54e:	30 2f       	jc	$-414    	;abs 0x3b0
 550:	34 2e       	jc	$-918    	;abs 0x1ba
 552:	36 2e       	jc	$-914    	;abs 0x1c0
 554:	33 2f       	jc	$-408    	;abs 0x3bc
 556:	2e 2e       	jc	$-930    	;abs 0x1b4
 558:	2f 2e       	jc	$-928    	;abs 0x1b8
 55a:	2e 2f       	jc	$-418    	;abs 0x3b8
 55c:	2e 2e       	jc	$-930    	;abs 0x1ba
 55e:	2f 2e       	jc	$-928    	;abs 0x1be
 560:	2e 2f       	jc	$-418    	;abs 0x3be
 562:	6d 73       	subc.b	#2,	r13	;r3 As==10
 564:	70 34       	jge	$+226    	;abs 0x646
 566:	33 30       	jn	$+104    	;abs 0x5ce
 568:	2f 69       	addc	@r9,	r15	
 56a:	6e 63       	addc.b	#2,	r14	;r3 As==10
 56c:	6c 75       	subc.b	@r5,	r12	
 56e:	64 65       	addc.b	@r5,	r4	
 570:	00 00       	.word	0x0000;	????	
 572:	73 65       	.word	0x6573;	????	Illegal as 2-op instr
 574:	72 69       	addc.b	@r9+,	r2	
 576:	61 6c       	addc.b	@r12,	r1	
 578:	5f 75 73 63 	subc.b	25459(r5),r15	;0x6373(r5)
 57c:	69 5f       	add.b	@r15,	r9	
 57e:	6d 73       	subc.b	#2,	r13	;r3 As==10
 580:	70 34       	jge	$+226    	;abs 0x662
 582:	33 30       	jn	$+104    	;abs 0x5ea
 584:	2e 63       	addc	#2,	r14	;r3 As==10
 586:	00 00       	.word	0x0000;	????	
 588:	00 00       	.word	0x0000;	????	
 58a:	6d 73       	subc.b	#2,	r13	;r3 As==10
 58c:	70 34       	jge	$+226    	;abs 0x66e
 58e:	33 30       	jn	$+104    	;abs 0x5f6
 590:	67 32       	jn	$-816    	;abs 0x260
 592:	35 35       	jge	$+620    	;abs 0x7fe
 594:	33 2e       	jc	$-920    	;abs 0x1fc
 596:	68 00       	.word	0x0068;	????	
 598:	01 00       	.word	0x0001;	????	
 59a:	00 00       	.word	0x0000;	????	
 59c:	00 03       	.word	0x0300;	????	
 59e:	02 94       	cmp	r4,	r2	
 5a0:	c7 03       	.word	0x03c7;	????	
 5a2:	2a 01       	.word	0x012a;	????	
 5a4:	13 67       	.word	0x6713;	????	Illegal as 2-op instr
 5a6:	67 68       	addc.b	@r8,	r7	
 5a8:	03 0a       	.word	0x0a03;	????	
 5aa:	08 ac       	dadd	r12,	r8	
 5ac:	02 2e       	jc	$-1018   	;abs 0x1b2
 5ae:	14 d7 bd bf 	bis	-16451(r7),r4	;0xbfbd(r7)
 5b2:	02 2e       	jc	$-1018   	;abs 0x1b8
 5b4:	14 84 d7 bb 	sub	-17449(r4),r4	;0xbbd7(r4)
 5b8:	bb da bb d7 	bis	@r10+,	-10309(r11);0xd7bb(r11)
 5bc:	d7 a4 4b 67 	dadd.b	26443(r4),19203(r7);0x674b(r4), 0x4b03(r7)
 5c0:	03 4b 
 5c2:	2e 13       	reti			;return from interupt
 5c4:	d7 03       	.word	0x03d7;	????	
 5c6:	36 2e       	jc	$-914    	;abs 0x234
 5c8:	13 4b       	.word	0x4b13;	????	Illegal as 2-op instr
 5ca:	31 00       	.word	0x0031;	????	
 5cc:	02 04       	.word	0x0402;	????	
 5ce:	01 13       	reti			;return from interupt
 5d0:	83 4b       	mov	r11,	#1	;r3 As==01
 5d2:	31 13       	reti			;return from interupt
 5d4:	4b 31       	jn	$+664    	;abs 0x86c
 5d6:	00 02       	.word	0x0200;	????	
 5d8:	04 01       	.word	0x0104;	????	
 5da:	13 83       	dec	#0		;r3 As==00
 5dc:	4b 02       	.word	0x024b;	????	
 5de:	02 00       	.word	0x0002;	????	
 5e0:	01 01       	.word	0x0101;	????	
 5e2:	78 00       	.word	0x0078;	????	
 5e4:	00 00       	.word	0x0000;	????	
 5e6:	02 00       	.word	0x0002;	????	
 5e8:	4b 00       	.word	0x004b;	????	
 5ea:	00 00       	.word	0x0000;	????	
 5ec:	01 01       	.word	0x0101;	????	
 5ee:	fb 0e       	.word	0x0efb;	????	
 5f0:	0d 00       	.word	0x000d;	????	
 5f2:	01 01       	.word	0x0101;	????	
 5f4:	01 01       	.word	0x0101;	????	
 5f6:	00 00       	.word	0x0000;	????	
 5f8:	00 01       	.word	0x0100;	????	
 5fa:	00 00       	.word	0x0000;	????	
 5fc:	01 2e       	jc	$-1020   	;abs 0x200
 5fe:	2e 2f       	jc	$-418    	;abs 0x45c
 600:	2e 2e       	jc	$-930    	;abs 0x25e
 602:	2f 2e       	jc	$-928    	;abs 0x262
 604:	2e 2f       	jc	$-418    	;abs 0x462
 606:	2e 2e       	jc	$-930    	;abs 0x264
 608:	2f 67       	addc	@r7,	r15	
 60a:	63 63       	.word	0x6363;	????	Illegal as 2-op instr
 60c:	2f 6c       	addc	@r12,	r15	
 60e:	69 62       	addc.b	#4,	r9	;r2 As==10
 610:	67 63       	addc.b	#2,	r7	;r3 As==10
 612:	63 2f       	jc	$-312    	;abs 0x4da
 614:	2e 2e       	jc	$-930    	;abs 0x272
 616:	2f 67       	addc	@r7,	r15	
 618:	63 63       	.word	0x6363;	????	Illegal as 2-op instr
 61a:	2f 63       	addc	#2,	r15	;r3 As==10
 61c:	6f 6e       	addc.b	@r14,	r15	
 61e:	66 69       	addc.b	@r9,	r6	
 620:	67 2f       	jc	$-304    	;abs 0x4f0
 622:	6d 73       	subc.b	#2,	r13	;r3 As==10
 624:	70 34       	jge	$+226    	;abs 0x706
 626:	33 30       	jn	$+104    	;abs 0x68e
 628:	00 00       	.word	0x0000;	????	
 62a:	6c 69       	addc.b	@r9,	r12	
 62c:	62 67       	addc.b	@r7,	r2	
 62e:	63 63       	.word	0x6363;	????	Illegal as 2-op instr
 630:	2e 53       	incd	r14		
 632:	00 01       	.word	0x0100;	????	
 634:	00 00       	.word	0x0000;	????	
 636:	00 00       	.word	0x0000;	????	
 638:	03 02       	.word	0x0203;	????	
 63a:	f6 c8 03 c6 	bic.b	@r8+,	-14845(r6);0xc603(r6)
 63e:	04 01       	.word	0x0104;	????	
 640:	2f 2f       	jc	$-416    	;abs 0x4a0
 642:	2f 4b       	mov	@r11,	r15	
 644:	2f 2f       	jc	$-416    	;abs 0x4a4
 646:	2f 2f       	jc	$-416    	;abs 0x4a6
 648:	2f 2f       	jc	$-416    	;abs 0x4a8
 64a:	2f 2f       	jc	$-416    	;abs 0x4aa
 64c:	4b 2f       	jc	$-360    	;abs 0x4e4
 64e:	2f 2f       	jc	$-416    	;abs 0x4ae
 650:	2f 2f       	jc	$-416    	;abs 0x4b0
 652:	2f 2f       	jc	$-416    	;abs 0x4b2
 654:	2f 2f       	jc	$-416    	;abs 0x4b4
 656:	34 4b       	mov	@r11+,	r4	
 658:	2f 02       	.word	0x022f;	????	
 65a:	02 00       	.word	0x0002;	????	
 65c:	01 01       	.word	0x0101;	????	
 65e:	6d 00       	.word	0x006d;	????	
 660:	00 00       	.word	0x0000;	????	
 662:	02 00       	.word	0x0002;	????	
 664:	4b 00       	.word	0x004b;	????	
 666:	00 00       	.word	0x0000;	????	
 668:	01 01       	.word	0x0101;	????	
 66a:	fb 0e       	.word	0x0efb;	????	
 66c:	0d 00       	.word	0x000d;	????	
 66e:	01 01       	.word	0x0101;	????	
 670:	01 01       	.word	0x0101;	????	
 672:	00 00       	.word	0x0000;	????	
 674:	00 01       	.word	0x0100;	????	
 676:	00 00       	.word	0x0000;	????	
 678:	01 2e       	jc	$-1020   	;abs 0x27c
 67a:	2e 2f       	jc	$-418    	;abs 0x4d8
 67c:	2e 2e       	jc	$-930    	;abs 0x2da
 67e:	2f 2e       	jc	$-928    	;abs 0x2de
 680:	2e 2f       	jc	$-418    	;abs 0x4de
 682:	2e 2e       	jc	$-930    	;abs 0x2e0
 684:	2f 67       	addc	@r7,	r15	
 686:	63 63       	.word	0x6363;	????	Illegal as 2-op instr
 688:	2f 6c       	addc	@r12,	r15	
 68a:	69 62       	addc.b	#4,	r9	;r2 As==10
 68c:	67 63       	addc.b	#2,	r7	;r3 As==10
 68e:	63 2f       	jc	$-312    	;abs 0x556
 690:	2e 2e       	jc	$-930    	;abs 0x2ee
 692:	2f 67       	addc	@r7,	r15	
 694:	63 63       	.word	0x6363;	????	Illegal as 2-op instr
 696:	2f 63       	addc	#2,	r15	;r3 As==10
 698:	6f 6e       	addc.b	@r14,	r15	
 69a:	66 69       	addc.b	@r9,	r6	
 69c:	67 2f       	jc	$-304    	;abs 0x56c
 69e:	6d 73       	subc.b	#2,	r13	;r3 As==10
 6a0:	70 34       	jge	$+226    	;abs 0x782
 6a2:	33 30       	jn	$+104    	;abs 0x70a
 6a4:	00 00       	.word	0x0000;	????	
 6a6:	6c 69       	addc.b	@r9,	r12	
 6a8:	62 67       	addc.b	@r7,	r2	
 6aa:	63 63       	.word	0x6363;	????	Illegal as 2-op instr
 6ac:	2e 53       	incd	r14		
 6ae:	00 01       	.word	0x0100;	????	
 6b0:	00 00       	.word	0x0000;	????	
 6b2:	00 00       	.word	0x0000;	????	
 6b4:	03 02       	.word	0x0203;	????	
 6b6:	30 c9       	bic	@r9+,	r0	
 6b8:	03 a4       	.word	0xa403;	????	Illegal as 2-op instr
 6ba:	04 01       	.word	0x0104;	????	
 6bc:	4b 2f       	jc	$-360    	;abs 0x554
 6be:	2f 2f       	jc	$-416    	;abs 0x51e
 6c0:	2f 2f       	jc	$-416    	;abs 0x520
 6c2:	2f 2f       	jc	$-416    	;abs 0x522
 6c4:	2f 2f       	jc	$-416    	;abs 0x524
 6c6:	2f 34       	jge	$+96     	;abs 0x726
 6c8:	4b 2f       	jc	$-360    	;abs 0x560
 6ca:	02 02       	.word	0x0202;	????	
 6cc:	00 01       	.word	0x0100;	????	
 6ce:	01 e2       	xor	r2,	r1	
 6d0:	00 00       	.word	0x0000;	????	
 6d2:	00 02       	.word	0x0200;	????	
 6d4:	00 90       	cmp	r0,	r0	
 6d6:	00 00       	.word	0x0000;	????	
 6d8:	00 01       	.word	0x0100;	????	
 6da:	01 fb       	and	r11,	r1	
 6dc:	0e 0d       	.word	0x0d0e;	????	
 6de:	00 01       	.word	0x0100;	????	
 6e0:	01 01       	.word	0x0101;	????	
 6e2:	01 00       	.word	0x0001;	????	
 6e4:	00 00       	.word	0x0000;	????	
 6e6:	01 00       	.word	0x0001;	????	
 6e8:	00 01       	.word	0x0100;	????	
 6ea:	2e 2f       	jc	$-418    	;abs 0x548
 6ec:	73 74       	.word	0x7473;	????	Illegal as 2-op instr
 6ee:	72 69       	addc.b	@r9+,	r2	
 6f0:	6e 67       	addc.b	@r7,	r14	
 6f2:	00 2e       	jc	$-1022   	;abs 0x2f4
 6f4:	2f 2e       	jc	$-928    	;abs 0x354
 6f6:	2e 2f       	jc	$-418    	;abs 0x554
 6f8:	69 6e       	addc.b	@r14,	r9	
 6fa:	63 6c       	.word	0x6c63;	????	Illegal as 2-op instr
 6fc:	75 64       	addc.b	@r4+,	r5	
 6fe:	65 2f       	jc	$-308    	;abs 0x5ca
 700:	73 79       	.word	0x7973;	????	Illegal as 2-op instr
 702:	73 00       	.word	0x0073;	????	
 704:	2f 55       	add	@r5,	r15	
 706:	73 65       	.word	0x6573;	????	Illegal as 2-op instr
 708:	72 73       	subc.b	#-1,	r2	;r3 As==11
 70a:	2f 72       	subc	#4,	r15	;r2 As==10
 70c:	77 65       	addc.b	@r5+,	r7	
 70e:	73 73       	.word	0x7373;	????	Illegal as 2-op instr
 710:	65 6c       	addc.b	@r12,	r5	
 712:	73 2f       	jc	$-280    	;abs 0x5fa
 714:	6f 70       	subc.b	@r0,	r15	
 716:	74 2f       	jc	$-278    	;abs 0x600
 718:	6d 73       	subc.b	#2,	r13	;r3 As==10
 71a:	70 67       	addc.b	@r7+,	r0	
 71c:	63 63       	.word	0x6363;	????	Illegal as 2-op instr
 71e:	5f 65 6e 65 	addc.b	25966(r5),r15	;0x656e(r5)
 722:	72 67       	addc.b	@r7+,	r2	
 724:	69 61       	addc.b	@r1,	r9	
 726:	2f 6c       	addc	@r12,	r15	
 728:	69 62       	addc.b	#4,	r9	;r2 As==10
 72a:	2f 67       	addc	@r7,	r15	
 72c:	63 63       	.word	0x6363;	????	Illegal as 2-op instr
 72e:	2f 6d       	addc	@r13,	r15	
 730:	73 70       	.word	0x7073;	????	Illegal as 2-op instr
 732:	34 33       	jn	$-406    	;abs 0x59c
 734:	30 2f       	jc	$-414    	;abs 0x596
 736:	34 2e       	jc	$-918    	;abs 0x3a0
 738:	36 2e       	jc	$-914    	;abs 0x3a6
 73a:	33 2f       	jc	$-408    	;abs 0x5a2
 73c:	69 6e       	addc.b	@r14,	r9	
 73e:	63 6c       	.word	0x6c63;	????	Illegal as 2-op instr
 740:	75 64       	addc.b	@r4+,	r5	
 742:	65 00       	.word	0x0065;	????	
 744:	00 6d       	addc	r13,	r0	
 746:	65 6d       	addc.b	@r13,	r5	
 748:	73 65       	.word	0x6573;	????	Illegal as 2-op instr
 74a:	74 2e       	jc	$-790    	;abs 0x434
 74c:	63 00       	.word	0x0063;	????	
 74e:	01 00       	.word	0x0001;	????	
 750:	00 74       	subc	r4,	r0	
 752:	79 70 65 73 	subc.b	#29541,	r9	;#0x7365
 756:	2e 68       	addc	@r8,	r14	
 758:	00 02       	.word	0x0200;	????	
 75a:	00 00       	.word	0x0000;	????	
 75c:	73 74       	.word	0x7473;	????	Illegal as 2-op instr
 75e:	64 64       	addc.b	@r4,	r4	
 760:	65 66       	addc.b	@r6,	r5	
 762:	2e 68       	addc	@r8,	r14	
 764:	00 03       	.word	0x0300;	????	
 766:	00 00       	.word	0x0000;	????	
 768:	00 00       	.word	0x0000;	????	
 76a:	03 02       	.word	0x0203;	????	
 76c:	52 c9 03 3d 	bic.b	15619(r9),r2	;0x3d03(r9)
 770:	01 03       	.word	0x0301;	????	
 772:	15 82 00 02 	sub	&0x0200,r5	
 776:	04 01       	.word	0x0104;	????	
 778:	06 66       	rlc	r6		
 77a:	06 4e       	mov	r14,	r6	
 77c:	67 00       	.word	0x0067;	????	
 77e:	02 04       	.word	0x0402;	????	
 780:	01 2b       	jnc	$-508    	;abs 0x584
 782:	03 09       	.word	0x0903;	????	
 784:	66 84       	sub.b	@r4,	r6	
 786:	03 0a       	.word	0x0a03;	????	
 788:	66 4d       	mov.b	@r13,	r6	
 78a:	31 03       	.word	0x0331;	????	
 78c:	7a 9e       	cmp.b	@r14+,	r10	
 78e:	03 0c       	.word	0x0c03;	????	
 790:	2e 00       	.word	0x002e;	????	
 792:	02 04       	.word	0x0402;	????	
 794:	01 a1       	dadd	r1,	r1	
 796:	00 02       	.word	0x0200;	????	
 798:	04 01       	.word	0x0104;	????	
 79a:	4b 00       	.word	0x004b;	????	
 79c:	02 04       	.word	0x0402;	????	
 79e:	01 30       	jn	$+4      	;abs 0x7a2
 7a0:	03 bd       	.word	0xbd03;	????	Illegal as 2-op instr
 7a2:	7f 4a       	mov.b	@r10+,	r15	
 7a4:	03 c3       	.word	0xc303;	????	Illegal as 2-op instr
 7a6:	00 2e       	jc	$-1022   	;abs 0x3a8
 7a8:	31 2f       	jc	$-412    	;abs 0x60c
 7aa:	00 02       	.word	0x0200;	????	
 7ac:	04 01       	.word	0x0104;	????	
 7ae:	31 4e       	mov	@r14+,	r1	
 7b0:	02 0a       	.word	0x0a02;	????	
 7b2:	00 01       	.word	0x0100;	????	
 7b4:	01 52       	add	r2,	r1	
 7b6:	00 00       	.word	0x0000;	????	
 7b8:	00 02       	.word	0x0200;	????	
 7ba:	00 3c       	jmp	$+2      	;abs 0x7bc
 7bc:	00 00       	.word	0x0000;	????	
 7be:	00 01       	.word	0x0100;	????	
 7c0:	01 fb       	and	r11,	r1	
 7c2:	0e 0d       	.word	0x0d0e;	????	
 7c4:	00 01       	.word	0x0100;	????	
 7c6:	01 01       	.word	0x0101;	????	
 7c8:	01 00       	.word	0x0001;	????	
 7ca:	00 00       	.word	0x0000;	????	
 7cc:	01 00       	.word	0x0001;	????	
 7ce:	00 01       	.word	0x0100;	????	
 7d0:	2e 2e       	jc	$-930    	;abs 0x42e
 7d2:	2f 2e       	jc	$-928    	;abs 0x432
 7d4:	2e 2f       	jc	$-418    	;abs 0x632
 7d6:	2e 2e       	jc	$-930    	;abs 0x434
 7d8:	2f 67       	addc	@r7,	r15	
 7da:	63 63       	.word	0x6363;	????	Illegal as 2-op instr
 7dc:	2f 67       	addc	@r7,	r15	
 7de:	63 63       	.word	0x6363;	????	Illegal as 2-op instr
 7e0:	2f 63       	addc	#2,	r15	;r3 As==10
 7e2:	6f 6e       	addc.b	@r14,	r15	
 7e4:	66 69       	addc.b	@r9,	r6	
 7e6:	67 2f       	jc	$-304    	;abs 0x6b6
 7e8:	6d 73       	subc.b	#2,	r13	;r3 As==10
 7ea:	70 34       	jge	$+226    	;abs 0x8cc
 7ec:	33 30       	jn	$+104    	;abs 0x854
 7ee:	00 00       	.word	0x0000;	????	
 7f0:	63 72       	.word	0x7263;	????	Illegal as 2-op instr
 7f2:	74 30       	jn	$+234    	;abs 0x8dc
 7f4:	2e 53       	incd	r14		
 7f6:	00 01       	.word	0x0100;	????	
 7f8:	00 00       	.word	0x0000;	????	
 7fa:	00 00       	.word	0x0000;	????	
 7fc:	03 02       	.word	0x0203;	????	
 7fe:	00 c0       	bic	r0,	r0	
 800:	03 e8       	.word	0xe803;	????	Illegal as 2-op instr
 802:	00 01       	.word	0x0100;	????	
 804:	4b 4b       	mov.b	r11,	r11	
 806:	02 04       	.word	0x0402;	????	
 808:	00 01       	.word	0x0100;	????	
 80a:	01 50       	add	r0,	r1	
 80c:	00 00       	.word	0x0000;	????	
 80e:	00 02       	.word	0x0200;	????	
 810:	00 3c       	jmp	$+2      	;abs 0x812
 812:	00 00       	.word	0x0000;	????	
 814:	00 01       	.word	0x0100;	????	
 816:	01 fb       	and	r11,	r1	
 818:	0e 0d       	.word	0x0d0e;	????	
 81a:	00 01       	.word	0x0100;	????	
 81c:	01 01       	.word	0x0101;	????	
 81e:	01 00       	.word	0x0001;	????	
 820:	00 00       	.word	0x0000;	????	
 822:	01 00       	.word	0x0001;	????	
 824:	00 01       	.word	0x0100;	????	
 826:	2e 2e       	jc	$-930    	;abs 0x484
 828:	2f 2e       	jc	$-928    	;abs 0x488
 82a:	2e 2f       	jc	$-418    	;abs 0x688
 82c:	2e 2e       	jc	$-930    	;abs 0x48a
 82e:	2f 67       	addc	@r7,	r15	
 830:	63 63       	.word	0x6363;	????	Illegal as 2-op instr
 832:	2f 67       	addc	@r7,	r15	
 834:	63 63       	.word	0x6363;	????	Illegal as 2-op instr
 836:	2f 63       	addc	#2,	r15	;r3 As==10
 838:	6f 6e       	addc.b	@r14,	r15	
 83a:	66 69       	addc.b	@r9,	r6	
 83c:	67 2f       	jc	$-304    	;abs 0x70c
 83e:	6d 73       	subc.b	#2,	r13	;r3 As==10
 840:	70 34       	jge	$+226    	;abs 0x922
 842:	33 30       	jn	$+104    	;abs 0x8aa
 844:	00 00       	.word	0x0000;	????	
 846:	63 72       	.word	0x7263;	????	Illegal as 2-op instr
 848:	74 30       	jn	$+234    	;abs 0x932
 84a:	2e 53       	incd	r14		
 84c:	00 01       	.word	0x0100;	????	
 84e:	00 00       	.word	0x0000;	????	
 850:	00 00       	.word	0x0000;	????	
 852:	03 02       	.word	0x0203;	????	
 854:	0c c0       	bic	r0,	r12	
 856:	03 99       	.word	0x9903;	????	Illegal as 2-op instr
 858:	01 01       	.word	0x0101;	????	
 85a:	02 04       	.word	0x0402;	????	
 85c:	00 01       	.word	0x0100;	????	
 85e:	01 56       	add	r6,	r1	
 860:	00 00       	.word	0x0000;	????	
 862:	00 02       	.word	0x0200;	????	
 864:	00 3c       	jmp	$+2      	;abs 0x866
 866:	00 00       	.word	0x0000;	????	
 868:	00 01       	.word	0x0100;	????	
 86a:	01 fb       	and	r11,	r1	
 86c:	0e 0d       	.word	0x0d0e;	????	
 86e:	00 01       	.word	0x0100;	????	
 870:	01 01       	.word	0x0101;	????	
 872:	01 00       	.word	0x0001;	????	
 874:	00 00       	.word	0x0000;	????	
 876:	01 00       	.word	0x0001;	????	
 878:	00 01       	.word	0x0100;	????	
 87a:	2e 2e       	jc	$-930    	;abs 0x4d8
 87c:	2f 2e       	jc	$-928    	;abs 0x4dc
 87e:	2e 2f       	jc	$-418    	;abs 0x6dc
 880:	2e 2e       	jc	$-930    	;abs 0x4de
 882:	2f 67       	addc	@r7,	r15	
 884:	63 63       	.word	0x6363;	????	Illegal as 2-op instr
 886:	2f 67       	addc	@r7,	r15	
 888:	63 63       	.word	0x6363;	????	Illegal as 2-op instr
 88a:	2f 63       	addc	#2,	r15	;r3 As==10
 88c:	6f 6e       	addc.b	@r14,	r15	
 88e:	66 69       	addc.b	@r9,	r6	
 890:	67 2f       	jc	$-304    	;abs 0x760
 892:	6d 73       	subc.b	#2,	r13	;r3 As==10
 894:	70 34       	jge	$+226    	;abs 0x976
 896:	33 30       	jn	$+104    	;abs 0x8fe
 898:	00 00       	.word	0x0000;	????	
 89a:	63 72       	.word	0x7263;	????	Illegal as 2-op instr
 89c:	74 30       	jn	$+234    	;abs 0x986
 89e:	2e 53       	incd	r14		
 8a0:	00 01       	.word	0x0100;	????	
 8a2:	00 00       	.word	0x0000;	????	
 8a4:	00 00       	.word	0x0000;	????	
 8a6:	03 02       	.word	0x0203;	????	
 8a8:	10 c0 03 bc 	bic	-17405(r0),r0	;PC rel. 0xc4ad
 8ac:	01 01       	.word	0x0101;	????	
 8ae:	4b 2f       	jc	$-360    	;abs 0x746
 8b0:	30 67       	addc	@r7+,	r0	
 8b2:	2f 67       	addc	@r7,	r15	
 8b4:	02 02       	.word	0x0202;	????	
 8b6:	00 01       	.word	0x0100;	????	
 8b8:	01 56       	add	r6,	r1	
 8ba:	00 00       	.word	0x0000;	????	
 8bc:	00 02       	.word	0x0200;	????	
 8be:	00 3c       	jmp	$+2      	;abs 0x8c0
 8c0:	00 00       	.word	0x0000;	????	
 8c2:	00 01       	.word	0x0100;	????	
 8c4:	01 fb       	and	r11,	r1	
 8c6:	0e 0d       	.word	0x0d0e;	????	
 8c8:	00 01       	.word	0x0100;	????	
 8ca:	01 01       	.word	0x0101;	????	
 8cc:	01 00       	.word	0x0001;	????	
 8ce:	00 00       	.word	0x0000;	????	
 8d0:	01 00       	.word	0x0001;	????	
 8d2:	00 01       	.word	0x0100;	????	
 8d4:	2e 2e       	jc	$-930    	;abs 0x532
 8d6:	2f 2e       	jc	$-928    	;abs 0x536
 8d8:	2e 2f       	jc	$-418    	;abs 0x736
 8da:	2e 2e       	jc	$-930    	;abs 0x538
 8dc:	2f 67       	addc	@r7,	r15	
 8de:	63 63       	.word	0x6363;	????	Illegal as 2-op instr
 8e0:	2f 67       	addc	@r7,	r15	
 8e2:	63 63       	.word	0x6363;	????	Illegal as 2-op instr
 8e4:	2f 63       	addc	#2,	r15	;r3 As==10
 8e6:	6f 6e       	addc.b	@r14,	r15	
 8e8:	66 69       	addc.b	@r9,	r6	
 8ea:	67 2f       	jc	$-304    	;abs 0x7ba
 8ec:	6d 73       	subc.b	#2,	r13	;r3 As==10
 8ee:	70 34       	jge	$+226    	;abs 0x9d0
 8f0:	33 30       	jn	$+104    	;abs 0x958
 8f2:	00 00       	.word	0x0000;	????	
 8f4:	63 72       	.word	0x7263;	????	Illegal as 2-op instr
 8f6:	74 30       	jn	$+234    	;abs 0x9e0
 8f8:	2e 53       	incd	r14		
 8fa:	00 01       	.word	0x0100;	????	
 8fc:	00 00       	.word	0x0000;	????	
 8fe:	00 00       	.word	0x0000;	????	
 900:	03 02       	.word	0x0203;	????	
 902:	28 c0       	bic	@r0,	r8	
 904:	03 d6       	.word	0xd603;	????	Illegal as 2-op instr
 906:	01 01       	.word	0x0101;	????	
 908:	4b 2f       	jc	$-360    	;abs 0x7a0
 90a:	30 67       	addc	@r7+,	r0	
 90c:	2f 4b       	mov	@r11,	r15	
 90e:	02 02       	.word	0x0202;	????	
 910:	00 01       	.word	0x0100;	????	
 912:	01 51       	rla	r1		
 914:	00 00       	.word	0x0000;	????	
 916:	00 02       	.word	0x0200;	????	
 918:	00 3c       	jmp	$+2      	;abs 0x91a
 91a:	00 00       	.word	0x0000;	????	
 91c:	00 01       	.word	0x0100;	????	
 91e:	01 fb       	and	r11,	r1	
 920:	0e 0d       	.word	0x0d0e;	????	
 922:	00 01       	.word	0x0100;	????	
 924:	01 01       	.word	0x0101;	????	
 926:	01 00       	.word	0x0001;	????	
 928:	00 00       	.word	0x0000;	????	
 92a:	01 00       	.word	0x0001;	????	
 92c:	00 01       	.word	0x0100;	????	
 92e:	2e 2e       	jc	$-930    	;abs 0x58c
 930:	2f 2e       	jc	$-928    	;abs 0x590
 932:	2e 2f       	jc	$-418    	;abs 0x790
 934:	2e 2e       	jc	$-930    	;abs 0x592
 936:	2f 67       	addc	@r7,	r15	
 938:	63 63       	.word	0x6363;	????	Illegal as 2-op instr
 93a:	2f 67       	addc	@r7,	r15	
 93c:	63 63       	.word	0x6363;	????	Illegal as 2-op instr
 93e:	2f 63       	addc	#2,	r15	;r3 As==10
 940:	6f 6e       	addc.b	@r14,	r15	
 942:	66 69       	addc.b	@r9,	r6	
 944:	67 2f       	jc	$-304    	;abs 0x814
 946:	6d 73       	subc.b	#2,	r13	;r3 As==10
 948:	70 34       	jge	$+226    	;abs 0xa2a
 94a:	33 30       	jn	$+104    	;abs 0x9b2
 94c:	00 00       	.word	0x0000;	????	
 94e:	63 72       	.word	0x7263;	????	Illegal as 2-op instr
 950:	74 30       	jn	$+234    	;abs 0xa3a
 952:	2e 53       	incd	r14		
 954:	00 01       	.word	0x0100;	????	
 956:	00 00       	.word	0x0000;	????	
 958:	00 00       	.word	0x0000;	????	
 95a:	03 02       	.word	0x0203;	????	
 95c:	6c c1       	bic.b	@r1,	r12	
 95e:	03 fe       	.word	0xfe03;	????	Illegal as 2-op instr
 960:	01 01       	.word	0x0101;	????	
 962:	4b 02       	.word	0x024b;	????	
 964:	02 00       	.word	0x0002;	????	
 966:	01 01       	.word	0x0101;	????	
 968:	50 00       	.word	0x0050;	????	
 96a:	00 00       	.word	0x0000;	????	
 96c:	02 00       	.word	0x0002;	????	
 96e:	3c 00       	.word	0x003c;	????	
 970:	00 00       	.word	0x0000;	????	
 972:	01 01       	.word	0x0101;	????	
 974:	fb 0e       	.word	0x0efb;	????	
 976:	0d 00       	.word	0x000d;	????	
 978:	01 01       	.word	0x0101;	????	
 97a:	01 01       	.word	0x0101;	????	
 97c:	00 00       	.word	0x0000;	????	
 97e:	00 01       	.word	0x0100;	????	
 980:	00 00       	.word	0x0000;	????	
 982:	01 2e       	jc	$-1020   	;abs 0x586
 984:	2e 2f       	jc	$-418    	;abs 0x7e2
 986:	2e 2e       	jc	$-930    	;abs 0x5e4
 988:	2f 2e       	jc	$-928    	;abs 0x5e8
 98a:	2e 2f       	jc	$-418    	;abs 0x7e8
 98c:	67 63       	addc.b	#2,	r7	;r3 As==10
 98e:	63 2f       	jc	$-312    	;abs 0x856
 990:	67 63       	addc.b	#2,	r7	;r3 As==10
 992:	63 2f       	jc	$-312    	;abs 0x85a
 994:	63 6f       	.word	0x6f63;	????	Illegal as 2-op instr
 996:	6e 66       	addc.b	@r6,	r14	
 998:	69 67       	addc.b	@r7,	r9	
 99a:	2f 6d       	addc	@r13,	r15	
 99c:	73 70       	.word	0x7073;	????	Illegal as 2-op instr
 99e:	34 33       	jn	$-406    	;abs 0x808
 9a0:	30 00       	.word	0x0030;	????	
 9a2:	00 63       	adc	r0		
 9a4:	72 74       	subc.b	@r4+,	r2	
 9a6:	30 2e       	jc	$-926    	;abs 0x608
 9a8:	53 00       	.word	0x0053;	????	
 9aa:	01 00       	.word	0x0001;	????	
 9ac:	00 00       	.word	0x0000;	????	
 9ae:	00 03       	.word	0x0300;	????	
 9b0:	02 bc       	bit	r12,	r2	
 9b2:	c9 03       	.word	0x03c9;	????	
 9b4:	cd 02       	.word	0x02cd;	????	
 9b6:	01 02       	.word	0x0201;	????	
 9b8:	02 00       	.word	0x0002;	????	
 9ba:	01 01       	.word	0x0101;	????	

Disassembly of section .debug_frame:

00000000 <.debug_frame>:
   0:	0e 00       	.word	0x000e;	????	
   2:	00 00       	.word	0x0000;	????	
   4:	ff ff ff ff 	and.b	@r15+,	-1(r15)	;0xffff(r15)
   8:	01 00       	.word	0x0001;	????	
   a:	01 7e       	subc	r14,	r1	
   c:	00 0c       	.word	0x0c00;	????	
   e:	01 02       	.word	0x0201;	????	
  10:	80 01       	.word	0x0180;	????	
  12:	1a 00       	.word	0x001a;	????	
  14:	00 00       	.word	0x0000;	????	
  16:	00 00       	.word	0x0000;	????	
  18:	00 00       	.word	0x0000;	????	
  1a:	76 c1       	bic.b	@r1+,	r6	
  1c:	52 00       	.word	0x0052;	????	
  1e:	42 0e       	.word	0x0e42;	????	
  20:	06 6c       	addc	r12,	r6	
  22:	0e 08       	.word	0x080e;	????	
  24:	42 0e       	.word	0x0e42;	????	
  26:	0a 44       	mov	r4,	r10	
  28:	0e 0c       	.word	0x0c0e;	????	
  2a:	40 2e       	jc	$-894    	;abs 0xfcac
  2c:	06 48       	mov	r8,	r6	
  2e:	0e 06       	.word	0x060e;	????	
  30:	18 00       	.word	0x0018;	????	
  32:	00 00       	.word	0x0000;	????	
  34:	00 00       	.word	0x0000;	????	
  36:	00 00       	.word	0x0000;	????	
  38:	c8 c1 48 00 	bic.b	r1,	72(r8)	;0x0048(r8)
  3c:	42 0e       	.word	0x0e42;	????	
  3e:	06 64       	addc	r4,	r6	
  40:	0e 08       	.word	0x080e;	????	
  42:	44 0e       	.word	0x0e44;	????	
  44:	0a 40       	mov	r0,	r10	
  46:	2e 04       	.word	0x042e;	????	
  48:	46 0e       	.word	0x0e46;	????	
  4a:	06 00       	.word	0x0006;	????	
  4c:	18 00       	.word	0x0018;	????	
  4e:	00 00       	.word	0x0000;	????	
  50:	00 00       	.word	0x0000;	????	
  52:	00 00       	.word	0x0000;	????	
  54:	10 c2 66 00 	bic	&0x0066,r0	
  58:	44 0e       	.word	0x0e44;	????	
  5a:	08 5a       	add	r10,	r8	
  5c:	0e 0a       	.word	0x0a0e;	????	
  5e:	44 0e       	.word	0x0e44;	????	
  60:	0c 40       	mov	r0,	r12	
  62:	2e 04       	.word	0x042e;	????	
  64:	46 0e       	.word	0x0e46;	????	
  66:	08 00       	.word	0x0008;	????	
  68:	0c 00       	.word	0x000c;	????	
  6a:	00 00       	.word	0x0000;	????	
  6c:	00 00       	.word	0x0000;	????	
  6e:	00 00       	.word	0x0000;	????	
  70:	76 c2       	bic.b	#8,	r6	;r2 As==11
  72:	14 00       	.word	0x0014;	????	
  74:	42 0e       	.word	0x0e42;	????	
  76:	04 00       	.word	0x0004;	????	
  78:	0c 00       	.word	0x000c;	????	
  7a:	00 00       	.word	0x0000;	????	
  7c:	00 00       	.word	0x0000;	????	
  7e:	00 00       	.word	0x0000;	????	
  80:	3e c0 2e 01 	bic	#302,	r14	;#0x012e
  84:	44 0e       	.word	0x0e44;	????	
  86:	60 00       	.word	0x0060;	????	
  88:	0e 00       	.word	0x000e;	????	
  8a:	00 00       	.word	0x0000;	????	
  8c:	00 00       	.word	0x0000;	????	
  8e:	00 00       	.word	0x0000;	????	
  90:	8a c2 d2 00 	bic	r2,	210(r10);0x00d2(r10)
  94:	42 0e       	.word	0x0e42;	????	
  96:	04 8f       	sub	r15,	r4	
  98:	02 00       	.word	0x0002;	????	
  9a:	0e 00       	.word	0x000e;	????	
  9c:	00 00       	.word	0x0000;	????	
  9e:	ff ff ff ff 	and.b	@r15+,	-1(r15)	;0xffff(r15)
  a2:	01 00       	.word	0x0001;	????	
  a4:	01 7e       	subc	r14,	r1	
  a6:	00 0c       	.word	0x0c00;	????	
  a8:	01 02       	.word	0x0201;	????	
  aa:	80 01       	.word	0x0180;	????	
  ac:	08 00       	.word	0x0008;	????	
  ae:	00 00       	.word	0x0000;	????	
  b0:	9a 00       	.word	0x009a;	????	
  b2:	00 00       	.word	0x0000;	????	
  b4:	5c c3       	bic.b	#1,	r12	;r3 As==01
  b6:	18 00       	.word	0x0018;	????	
  b8:	18 00       	.word	0x0018;	????	
  ba:	00 00       	.word	0x0000;	????	
  bc:	9a 00       	.word	0x009a;	????	
  be:	00 00       	.word	0x0000;	????	
  c0:	74 c3       	bic.b	#-1,	r4	;r3 As==11
  c2:	44 00       	.word	0x0044;	????	
  c4:	42 0e       	.word	0x0e42;	????	
  c6:	04 8b       	sub	r11,	r4	
  c8:	02 42       	mov	r2,	r2	
  ca:	0e 06       	.word	0x060e;	????	
  cc:	8a 03       	.word	0x038a;	????	
  ce:	42 0e       	.word	0x0e42;	????	
  d0:	08 89       	sub	r9,	r8	
  d2:	04 00       	.word	0x0004;	????	
  d4:	08 00       	.word	0x0008;	????	
  d6:	00 00       	.word	0x0000;	????	
  d8:	9a 00       	.word	0x009a;	????	
  da:	00 00       	.word	0x0000;	????	
  dc:	b8 c3 30 00 	bic	#-1,	48(r8)	;r3 As==11, 0x0030(r8)
  e0:	2c 00       	.word	0x002c;	????	
  e2:	00 00       	.word	0x0000;	????	
  e4:	9a 00       	.word	0x009a;	????	
  e6:	00 00       	.word	0x0000;	????	
  e8:	e8 c3 a6 00 	bic.b	#2,	166(r8)	;r3 As==10, 0x00a6(r8)
  ec:	42 0e       	.word	0x0e42;	????	
  ee:	04 8b       	sub	r11,	r4	
  f0:	02 42       	mov	r2,	r2	
  f2:	0e 06       	.word	0x060e;	????	
  f4:	8a 03       	.word	0x038a;	????	
  f6:	42 0e       	.word	0x0e42;	????	
  f8:	08 89       	sub	r9,	r8	
  fa:	04 42       	mov	r2,	r4	
  fc:	0e 0a       	.word	0x0a0e;	????	
  fe:	88 05       	.word	0x0588;	????	
 100:	42 0e       	.word	0x0e42;	????	
 102:	0c 87       	sub	r7,	r12	
 104:	06 42       	mov	r2,	r6	
 106:	0e 0e       	.word	0x0e0e;	????	
 108:	86 07       	.word	0x0786;	????	
 10a:	42 0e       	.word	0x0e42;	????	
 10c:	10 85 08 00 	sub	8(r5),	r0	;0x0008(r5)
 110:	2a 00       	.word	0x002a;	????	
 112:	00 00       	.word	0x0000;	????	
 114:	9a 00       	.word	0x009a;	????	
 116:	00 00       	.word	0x0000;	????	
 118:	8e c4 90 00 	bic	r4,	144(r14);0x0090(r14)
 11c:	42 0e       	.word	0x0e42;	????	
 11e:	04 8b       	sub	r11,	r4	
 120:	02 42       	mov	r2,	r2	
 122:	0e 06       	.word	0x060e;	????	
 124:	8a 03       	.word	0x038a;	????	
 126:	42 0e       	.word	0x0e42;	????	
 128:	08 89       	sub	r9,	r8	
 12a:	04 42       	mov	r2,	r4	
 12c:	0e 0a       	.word	0x0a0e;	????	
 12e:	88 05       	.word	0x0588;	????	
 130:	42 0e       	.word	0x0e42;	????	
 132:	0c 87       	sub	r7,	r12	
 134:	06 42       	mov	r2,	r6	
 136:	0e 0e       	.word	0x0e0e;	????	
 138:	86 07       	.word	0x0786;	????	
 13a:	44 0e       	.word	0x0e44;	????	
 13c:	60 00       	.word	0x0060;	????	
 13e:	0e 00       	.word	0x000e;	????	
 140:	00 00       	.word	0x0000;	????	
 142:	ff ff ff ff 	and.b	@r15+,	-1(r15)	;0xffff(r15)
 146:	01 00       	.word	0x0001;	????	
 148:	01 7e       	subc	r14,	r1	
 14a:	00 0c       	.word	0x0c00;	????	
 14c:	01 02       	.word	0x0201;	????	
 14e:	80 01       	.word	0x0180;	????	
 150:	22 00       	.word	0x0022;	????	
 152:	00 00       	.word	0x0000;	????	
 154:	3e 01       	.word	0x013e;	????	
 156:	00 00       	.word	0x0000;	????	
 158:	1e c5 6a 00 	bic	106(r5),r14	;0x006a(r5)
 15c:	42 0e       	.word	0x0e42;	????	
 15e:	04 8b       	sub	r11,	r4	
 160:	02 42       	mov	r2,	r2	
 162:	0e 06       	.word	0x060e;	????	
 164:	8a 03       	.word	0x038a;	????	
 166:	42 0e       	.word	0x0e42;	????	
 168:	08 89       	sub	r9,	r8	
 16a:	04 42       	mov	r2,	r4	
 16c:	0e 0a       	.word	0x0a0e;	????	
 16e:	88 05       	.word	0x0588;	????	
 170:	42 0e       	.word	0x0e42;	????	
 172:	0c 87       	sub	r7,	r12	
 174:	06 00       	.word	0x0006;	????	
 176:	08 00       	.word	0x0008;	????	
 178:	00 00       	.word	0x0000;	????	
 17a:	3e 01       	.word	0x013e;	????	
 17c:	00 00       	.word	0x0000;	????	
 17e:	88 c5 0e 00 	bic	r5,	14(r8)	;0x000e(r8)
 182:	0e 00       	.word	0x000e;	????	
 184:	00 00       	.word	0x0000;	????	
 186:	3e 01       	.word	0x013e;	????	
 188:	00 00       	.word	0x0000;	????	
 18a:	96 c5 14 00 	bic	20(r5),	3650(r6);0x0014(r5), 0x0e42(r6)
 18e:	42 0e 
 190:	04 8b       	sub	r11,	r4	
 192:	02 00       	.word	0x0002;	????	
 194:	1a 00       	.word	0x001a;	????	
 196:	00 00       	.word	0x0000;	????	
 198:	3e 01       	.word	0x013e;	????	
 19a:	00 00       	.word	0x0000;	????	
 19c:	aa c5 7a 00 	bic	@r5,	122(r10);0x007a(r10)
 1a0:	42 0e       	.word	0x0e42;	????	
 1a2:	04 8b       	sub	r11,	r4	
 1a4:	02 42       	mov	r2,	r2	
 1a6:	0e 06       	.word	0x060e;	????	
 1a8:	8a 03       	.word	0x038a;	????	
 1aa:	42 0e       	.word	0x0e42;	????	
 1ac:	08 89       	sub	r9,	r8	
 1ae:	04 44       	mov	r4,	r4	
 1b0:	0e 28       	jnc	$+30     	;abs 0x1ce
 1b2:	12 00       	.word	0x0012;	????	
 1b4:	00 00       	.word	0x0000;	????	
 1b6:	3e 01       	.word	0x013e;	????	
 1b8:	00 00       	.word	0x0000;	????	
 1ba:	24 c6       	bic	@r6,	r4	
 1bc:	3a 00       	.word	0x003a;	????	
 1be:	42 0e       	.word	0x0e42;	????	
 1c0:	04 8b       	sub	r11,	r4	
 1c2:	02 42       	mov	r2,	r2	
 1c4:	0e 06       	.word	0x060e;	????	
 1c6:	8a 03       	.word	0x038a;	????	
 1c8:	1c 00       	.word	0x001c;	????	
 1ca:	00 00       	.word	0x0000;	????	
 1cc:	3e 01       	.word	0x013e;	????	
 1ce:	00 00       	.word	0x0000;	????	
 1d0:	5e c6 2a 01 	bic.b	298(r6),r14	;0x012a(r6)
 1d4:	42 0e       	.word	0x0e42;	????	
 1d6:	04 8b       	sub	r11,	r4	
 1d8:	02 42       	mov	r2,	r2	
 1da:	0e 06       	.word	0x060e;	????	
 1dc:	8a 03       	.word	0x038a;	????	
 1de:	42 0e       	.word	0x0e42;	????	
 1e0:	08 89       	sub	r9,	r8	
 1e2:	04 42       	mov	r2,	r4	
 1e4:	0e 0a       	.word	0x0a0e;	????	
 1e6:	88 05       	.word	0x0588;	????	
 1e8:	0e 00       	.word	0x000e;	????	
 1ea:	00 00       	.word	0x0000;	????	
 1ec:	ff ff ff ff 	and.b	@r15+,	-1(r15)	;0xffff(r15)
 1f0:	01 00       	.word	0x0001;	????	
 1f2:	01 7e       	subc	r14,	r1	
 1f4:	00 0c       	.word	0x0c00;	????	
 1f6:	01 02       	.word	0x0201;	????	
 1f8:	80 01       	.word	0x0180;	????	
 1fa:	08 00       	.word	0x0008;	????	
 1fc:	00 00       	.word	0x0000;	????	
 1fe:	e8 01       	.word	0x01e8;	????	
 200:	00 00       	.word	0x0000;	????	
 202:	88 c7 06 00 	bic	r7,	6(r8)	;0x0006(r8)
 206:	08 00       	.word	0x0008;	????	
 208:	00 00       	.word	0x0000;	????	
 20a:	e8 01       	.word	0x01e8;	????	
 20c:	00 00       	.word	0x0000;	????	
 20e:	8e c7 06 00 	bic	r7,	6(r14)	;0x0006(r14)
 212:	0e 00       	.word	0x000e;	????	
 214:	00 00       	.word	0x0000;	????	
 216:	ff ff ff ff 	and.b	@r15+,	-1(r15)	;0xffff(r15)
 21a:	01 00       	.word	0x0001;	????	
 21c:	01 7e       	subc	r14,	r1	
 21e:	00 0c       	.word	0x0c00;	????	
 220:	01 02       	.word	0x0201;	????	
 222:	80 01       	.word	0x0180;	????	
 224:	08 00       	.word	0x0008;	????	
 226:	00 00       	.word	0x0000;	????	
 228:	12 02       	.word	0x0212;	????	
 22a:	00 00       	.word	0x0000;	????	
 22c:	94 c7 2a 01 	bic	298(r7),8(r4)	;0x012a(r7), 0x0008(r4)
 230:	08 00 
 232:	00 00       	.word	0x0000;	????	
 234:	12 02       	.word	0x0212;	????	
 236:	00 00       	.word	0x0000;	????	
 238:	be c8 10 00 	bic	@r8+,	16(r14)	;0x0010(r14)
 23c:	08 00       	.word	0x0008;	????	
 23e:	00 00       	.word	0x0000;	????	
 240:	12 02       	.word	0x0212;	????	
 242:	00 00       	.word	0x0000;	????	
 244:	ce c8 06 00 	bic.b	r8,	6(r14)	;0x0006(r14)
 248:	08 00       	.word	0x0008;	????	
 24a:	00 00       	.word	0x0000;	????	
 24c:	12 02       	.word	0x0212;	????	
 24e:	00 00       	.word	0x0000;	????	
 250:	d4 c8 0e 00 	bic.b	14(r8),	8(r4)	;0x000e(r8), 0x0008(r4)
 254:	08 00 
 256:	00 00       	.word	0x0000;	????	
 258:	12 02       	.word	0x0212;	????	
 25a:	00 00       	.word	0x0000;	????	
 25c:	e2 c8 06 00 	bic.b	@r8,	&0x0006	
 260:	08 00       	.word	0x0008;	????	
 262:	00 00       	.word	0x0000;	????	
 264:	12 02       	.word	0x0212;	????	
 266:	00 00       	.word	0x0000;	????	
 268:	e8 c8 0e 00 	bic.b	@r8,	14(r8)	;0x000e(r8)
 26c:	0e 00       	.word	0x000e;	????	
 26e:	00 00       	.word	0x0000;	????	
 270:	ff ff ff ff 	and.b	@r15+,	-1(r15)	;0xffff(r15)
 274:	01 00       	.word	0x0001;	????	
 276:	01 7e       	subc	r14,	r1	
 278:	00 0c       	.word	0x0c00;	????	
 27a:	01 02       	.word	0x0201;	????	
 27c:	80 01       	.word	0x0180;	????	
 27e:	1c 00       	.word	0x001c;	????	
 280:	00 00       	.word	0x0000;	????	
 282:	6c 02       	.word	0x026c;	????	
 284:	00 00       	.word	0x0000;	????	
 286:	52 c9 6a 00 	bic.b	106(r9),r2	;0x006a(r9)
 28a:	42 0e       	.word	0x0e42;	????	
 28c:	04 8b       	sub	r11,	r4	
 28e:	02 42       	mov	r2,	r2	
 290:	0e 06       	.word	0x060e;	????	
 292:	8a 03       	.word	0x038a;	????	
 294:	42 0e       	.word	0x0e42;	????	
 296:	08 89       	sub	r9,	r8	
 298:	04 42       	mov	r2,	r4	
 29a:	0e 0a       	.word	0x0a0e;	????	
 29c:	88 05       	.word	0x0588;	????	

Disassembly of section .debug_str:

00000000 <.debug_str>:
   0:	5f 5f 57 44 	add.b	17495(r15),r15	;0x4457(r15)
   4:	54 43       	mov.b	#1,	r4	;r3 As==01
   6:	54 4c 00 73 	mov.b	29440(r12),r4	;0x7300(r12)
   a:	68 65       	addc.b	@r5,	r8	
   c:	6c 6c       	addc.b	@r12,	r12	
   e:	5f 63       	addc.b	#1,	r15	;r3 As==01
  10:	6d 64       	addc.b	@r4,	r13	
  12:	5f 68 65 6c 	addc.b	27749(r8),r15	;0x6c65(r8)
  16:	70 00       	.word	0x0070;	????	
  18:	63 6f       	.word	0x6f63;	????	Illegal as 2-op instr
  1a:	75 6e       	addc.b	@r14+,	r5	
  1c:	74 00       	.word	0x0074;	????	
  1e:	54 69 6d 65 	addc.b	25965(r9),r4	;0x656d(r9)
  22:	72 30       	jn	$+230    	;abs 0x108
  24:	5f 41 30 5f 	mov.b	24368(r1),r15	;0x5f30(r1)
  28:	49 53       	add.b	#0,	r9	;r3 As==00
  2a:	52 00       	.word	0x0052;	????	
  2c:	5f 5f 50 32 	add.b	12880(r15),r15	;0x3250(r15)
  30:	44 49       	mov.b	r9,	r4	
  32:	52 00       	.word	0x0052;	????	
  34:	64 65       	addc.b	@r5,	r4	
  36:	73 63       	.word	0x6373;	????	Illegal as 2-op instr
  38:	00 73       	sbc	r0		
  3a:	68 65       	addc.b	@r5,	r8	
  3c:	6c 6c       	addc.b	@r12,	r12	
  3e:	2e 63       	addc	#2,	r14	;r3 As==10
  40:	00 5f       	add	r15,	r0	
  42:	5f 50 31 44 	add.b	17457(r0),r15	;PC rel. 0x4475
  46:	49 52       	add.b	r2,	r9	
  48:	00 73       	sbc	r0		
  4a:	65 63       	addc.b	#2,	r5	;r3 As==10
  4c:	6f 6e       	addc.b	@r14,	r15	
  4e:	64 56       	add.b	@r6,	r4	
  50:	61 6c       	addc.b	@r12,	r1	
  52:	75 65       	addc.b	@r5+,	r5	
  54:	00 75       	subc	r5,	r0	
  56:	6e 73       	subc.b	#2,	r14	;r3 As==10
  58:	69 67       	addc.b	@r7,	r9	
  5a:	6e 65       	addc.b	@r5,	r14	
  5c:	64 20       	jnz	$+202    	;abs 0x126
  5e:	63 68       	.word	0x6863;	????	Illegal as 2-op instr
  60:	61 72       	subc.b	#4,	r1	;r2 As==10
  62:	00 73       	sbc	r0		
  64:	68 65       	addc.b	@r5,	r8	
  66:	6c 6c       	addc.b	@r12,	r12	
  68:	5f 63       	addc.b	#1,	r15	;r3 As==01
  6a:	6d 64       	addc.b	@r4,	r13	
  6c:	5f 68 65 78 	addc.b	30821(r8),r15	;0x7865(r8)
  70:	64 00       	.word	0x0064;	????	
  72:	5f 5f 50 31 	add.b	12624(r15),r15	;0x3150(r15)
  76:	4f 55       	add.b	r5,	r15	
  78:	54 00       	.word	0x0054;	????	
  7a:	5f 5f 54 41 	add.b	16724(r15),r15	;0x4154(r15)
  7e:	30 43       	br	#-1		;r3 As==11
  80:	54 4c 00 5f 	mov.b	24320(r12),r4	;0x5f00(r12)
  84:	5f 43       	mov.b	#1,	r15	;r3 As==01
  86:	41 4c       	mov.b	r12,	r1	
  88:	44 43       	clr.b	r4		
  8a:	4f 5f       	rla.b	r15		
  8c:	31 4d       	mov	@r13+,	r1	
  8e:	48 5a       	add.b	r10,	r8	
  90:	00 5f       	add	r15,	r0	
  92:	5f 54 41 30 	add.b	12353(r4),r15	;0x3041(r4)
  96:	43 43       	clr.b	#0		;r3 As==00
  98:	54 4c 30 00 	mov.b	48(r12),r4	;0x0030(r12)
  9c:	5f 5f 54 41 	add.b	16724(r15),r15	;0x4154(r15)
  a0:	30 43       	br	#-1		;r3 As==11
  a2:	43 54       	.word	0x5443;	????	Illegal as 2-op instr
  a4:	4c 31       	jn	$+666    	;abs 0x33e
  a6:	00 63       	adc	r0		
  a8:	6d 64       	addc.b	@r4,	r13	
  aa:	5f 6c 69 6e 	addc.b	28265(r12),r15	;0x6e69(r12)
  ae:	65 00       	.word	0x0065;	????	
  b0:	6d 79       	subc.b	@r9,	r13	
  b2:	5f 73       	subc.b	#1,	r15	;r3 As==01
  b4:	68 65       	addc.b	@r5,	r8	
  b6:	6c 6c       	addc.b	@r12,	r12	
  b8:	5f 63       	addc.b	#1,	r15	;r3 As==01
  ba:	6d 64       	addc.b	@r4,	r13	
  bc:	73 00       	.word	0x0073;	????	
  be:	5f 5f 50 32 	add.b	12880(r15),r15	;0x3250(r15)
  c2:	53 45       	.word	0x4553;	????	Illegal as 2-op instr
  c4:	4c 00       	.word	0x004c;	????	
  c6:	5f 5f 43 41 	add.b	16707(r15),r15	;0x4143(r15)
  ca:	4c 42       	mov.b	r2,	r12	
  cc:	43 31       	jn	$+648    	;abs 0x354
  ce:	5f 31       	jn	$+704    	;abs 0x38e
  d0:	4d 48       	mov.b	r8,	r13	
  d2:	5a 00       	.word	0x005a;	????	
  d4:	66 75       	subc.b	@r5,	r6	
  d6:	6e 63       	addc.b	#2,	r14	;r3 As==10
  d8:	00 6d       	addc	r13,	r0	
  da:	61 69       	addc.b	@r9,	r1	
  dc:	6e 00       	.word	0x006e;	????	
  de:	5f 5f 54 41 	add.b	16724(r15),r15	;0x4154(r15)
  e2:	30 43       	br	#-1		;r3 As==11
  e4:	43 52       	.word	0x5243;	????	Illegal as 2-op instr
  e6:	30 00       	.word	0x0030;	????	
  e8:	73 68       	.word	0x6873;	????	Illegal as 2-op instr
  ea:	65 6c       	addc.b	@r12,	r5	
  ec:	6c 5f       	add.b	@r15,	r12	
  ee:	63 6d       	.word	0x6d63;	????	Illegal as 2-op instr
  f0:	64 5f       	add.b	@r15,	r4	
  f2:	61 72       	subc.b	#4,	r1	;r2 As==10
  f4:	67 73       	subc.b	#2,	r7	;r3 As==10
  f6:	00 2f       	jc	$-510    	;abs 0xfef8
  f8:	55 73       	subc.b	#1,	r5	;r3 As==01
  fa:	65 72       	subc.b	#4,	r5	;r2 As==10
  fc:	73 2f       	jc	$-280    	;abs 0xffe4
  fe:	44 61       	addc.b	r1,	r4	
 100:	6e 69       	addc.b	@r9,	r14	
 102:	65 6c       	addc.b	@r12,	r5	
 104:	2f 32       	jn	$-928    	;abs 0xfd64
 106:	32 33       	jn	$-410    	;abs 0xff6c
 108:	30 2f       	jc	$-414    	;abs 0xff6a
 10a:	61 34       	jge	$+196    	;abs 0x1ce
 10c:	00 5f       	add	r15,	r0	
 10e:	5f 50 32 4f 	add.b	20274(r0),r15	;PC rel. 0x5042
 112:	55 54 00 66 	add.b	26112(r4),r5	;0x6600(r4)
 116:	69 72       	subc.b	#4,	r9	;r2 As==10
 118:	73 74       	.word	0x7473;	????	Illegal as 2-op instr
 11a:	56 61 6c 75 	addc.b	30060(r1),r6	;0x756c(r1)
 11e:	65 00       	.word	0x0065;	????	
 120:	64 65       	addc.b	@r5,	r4	
 122:	73 69       	.word	0x6973;	????	Illegal as 2-op instr
 124:	72 65       	addc.b	@r5+,	r2	
 126:	64 44       	mov.b	@r4,	r4	
 128:	69 73       	subc.b	#2,	r9	;r3 As==10
 12a:	70 6c       	addc.b	@r12+,	r0	
 12c:	61 79       	subc.b	@r9,	r1	
 12e:	00 63       	adc	r0		
 130:	68 61       	addc.b	@r1,	r8	
 132:	72 41       	pop.b	r2		
 134:	72 72       	subc.b	#8,	r2	;r2 As==11
 136:	61 79       	subc.b	@r9,	r1	
 138:	00 64       	addc	r4,	r0	
 13a:	69 67       	addc.b	@r7,	r9	
 13c:	69 74       	subc.b	@r4,	r9	
 13e:	43 6f       	.word	0x6f43;	????	Illegal as 2-op instr
 140:	75 6e       	addc.b	@r14+,	r5	
 142:	74 65       	addc.b	@r5+,	r4	
 144:	72 41       	pop.b	r2		
 146:	72 72       	subc.b	#8,	r2	;r2 As==11
 148:	61 79       	subc.b	@r9,	r1	
 14a:	00 47       	br	r7		
 14c:	4e 55       	add.b	r5,	r14	
 14e:	20 43       	br	#2		;r3 As==10
 150:	20 34       	jge	$+66     	;abs 0x192
 152:	2e 36       	jge	$-930    	;abs 0xfdb0
 154:	2e 33       	jn	$-418    	;abs 0xffb2
 156:	20 32       	jn	$-958    	;abs 0xfd98
 158:	30 31       	jn	$+610    	;abs 0x3ba
 15a:	32 30       	jn	$+102    	;abs 0x1c0
 15c:	33 30       	jn	$+104    	;abs 0x1c4
 15e:	31 20       	jnz	$+100    	;abs 0x1c2
 160:	28 6d       	addc	@r13,	r8	
 162:	73 70       	.word	0x7073;	????	Illegal as 2-op instr
 164:	67 63       	addc.b	#2,	r7	;r3 As==10
 166:	63 20       	jnz	$+200    	;abs 0x22e
 168:	4c 54       	add.b	r4,	r12	
 16a:	53 20       	jnz	$+168    	;abs 0x212
 16c:	32 30       	jn	$+102    	;abs 0x1d2
 16e:	31 32       	jn	$-924    	;abs 0xfdd2
 170:	30 34       	jge	$+98     	;abs 0x1d2
 172:	30 36       	jge	$-926    	;abs 0xfdd4
 174:	20 75       	subc	@r5,	r0	
 176:	6e 70       	subc.b	@r0,	r14	
 178:	61 74       	subc.b	@r4,	r1	
 17a:	63 68       	.word	0x6863;	????	Illegal as 2-op instr
 17c:	65 64       	addc.b	@r4,	r5	
 17e:	29 00       	.word	0x0029;	????	
 180:	5f 5f 44 43 	add.b	17220(r15),r15	;0x4344(r15)
 184:	4f 43       	clr.b	r15		
 186:	54 4c 00 73 	mov.b	29440(r12),r4	;0x7300(r12)
 18a:	68 65       	addc.b	@r5,	r8	
 18c:	6c 6c       	addc.b	@r12,	r12	
 18e:	5f 63       	addc.b	#1,	r15	;r3 As==01
 190:	6d 64       	addc.b	@r4,	r13	
 192:	5f 61 72 67 	addc.b	26482(r1),r15	;0x6772(r1)
 196:	00 5f       	add	r15,	r0	
 198:	5f 42 43 53 	mov.b	&0x5343,r15	
 19c:	43 54       	.word	0x5443;	????	Illegal as 2-op instr
 19e:	4c 31       	jn	$+666    	;abs 0x438
 1a0:	00 73       	sbc	r0		
 1a2:	68 65       	addc.b	@r5,	r8	
 1a4:	6c 6c       	addc.b	@r12,	r12	
 1a6:	5f 63       	addc.b	#1,	r15	;r3 As==01
 1a8:	6d 64       	addc.b	@r4,	r13	
 1aa:	00 64       	addc	r4,	r0	
 1ac:	69 73       	subc.b	#2,	r9	;r3 As==10
 1ae:	70 6c       	addc.b	@r12+,	r0	
 1b0:	61 79       	subc.b	@r9,	r1	
 1b2:	73 00       	.word	0x0073;	????	
 1b4:	73 68       	.word	0x6873;	????	Illegal as 2-op instr
 1b6:	65 6c       	addc.b	@r12,	r5	
 1b8:	6c 5f       	add.b	@r15,	r12	
 1ba:	63 6d       	.word	0x6d63;	????	Illegal as 2-op instr
 1bc:	64 5f       	add.b	@r15,	r4	
 1be:	61 72       	subc.b	#4,	r1	;r2 As==10
 1c0:	67 74       	subc.b	@r4,	r7	
 1c2:	00 73       	sbc	r0		
 1c4:	68 65       	addc.b	@r5,	r8	
 1c6:	6c 6c       	addc.b	@r12,	r12	
 1c8:	5f 70 72 6f 	subc.b	28530(r0),r15	;PC rel. 0x713c
 1cc:	63 65       	.word	0x6563;	????	Illegal as 2-op instr
 1ce:	73 73       	.word	0x7373;	????	Illegal as 2-op instr
 1d0:	00 64       	addc	r4,	r0	
 1d2:	69 67       	addc.b	@r7,	r9	
 1d4:	69 74       	subc.b	@r4,	r9	
 1d6:	43 6f       	.word	0x6f43;	????	Illegal as 2-op instr
 1d8:	75 6e       	addc.b	@r14+,	r5	
 1da:	74 65       	addc.b	@r5+,	r4	
 1dc:	72 00       	.word	0x0072;	????	
 1de:	61 72       	subc.b	#4,	r1	;r2 As==10
 1e0:	67 63       	addc.b	#2,	r7	;r3 As==10
 1e2:	00 73       	sbc	r0		
 1e4:	68 65       	addc.b	@r5,	r8	
 1e6:	6c 6c       	addc.b	@r12,	r12	
 1e8:	5f 61 72 67 	addc.b	26482(r1),r15	;0x6772(r1)
 1ec:	5f 70 61 72 	subc.b	29281(r0),r15	;PC rel. 0x744f
 1f0:	73 65       	.word	0x6573;	????	Illegal as 2-op instr
 1f2:	72 00       	.word	0x0072;	????	
 1f4:	63 6d       	.word	0x6d63;	????	Illegal as 2-op instr
 1f6:	64 5f       	add.b	@r15,	r4	
 1f8:	6c 69       	addc.b	@r9,	r12	
 1fa:	6e 65       	addc.b	@r5,	r14	
 1fc:	5f 6c 65 6e 	addc.b	28261(r12),r15	;0x6e65(r12)
 200:	00 73       	sbc	r0		
 202:	68 65       	addc.b	@r5,	r8	
 204:	6c 6c       	addc.b	@r12,	r12	
 206:	5f 73       	subc.b	#1,	r15	;r3 As==01
 208:	74 72       	subc.b	#8,	r4	;r2 As==11
 20a:	5f 63       	addc.b	#1,	r15	;r3 As==01
 20c:	6d 70       	subc.b	@r0,	r13	
 20e:	00 73       	sbc	r0		
 210:	70 6f       	addc.b	@r15+,	r0	
 212:	73 00       	.word	0x0073;	????	
 214:	63 6d       	.word	0x6d63;	????	Illegal as 2-op instr
 216:	64 5f       	add.b	@r15,	r4	
 218:	6c 65       	addc.b	@r5,	r12	
 21a:	6e 00       	.word	0x006e;	????	
 21c:	73 74       	.word	0x7473;	????	Illegal as 2-op instr
 21e:	72 32       	jn	$-794    	;abs 0xff04
 220:	00 6c       	addc	r12,	r0	
 222:	65 6e       	addc.b	@r14,	r5	
 224:	31 00       	.word	0x0031;	????	
 226:	73 68       	.word	0x6873;	????	Illegal as 2-op instr
 228:	65 6c       	addc.b	@r12,	r5	
 22a:	6c 5f       	add.b	@r15,	r12	
 22c:	73 74       	.word	0x7473;	????	Illegal as 2-op instr
 22e:	72 5f       	add.b	@r15+,	r2	
 230:	6c 65       	addc.b	@r5,	r12	
 232:	6e 00       	.word	0x006e;	????	
 234:	2f 55       	add	@r5,	r15	
 236:	73 65       	.word	0x6573;	????	Illegal as 2-op instr
 238:	72 73       	subc.b	#-1,	r2	;r3 As==11
 23a:	2f 44       	mov	@r4,	r15	
 23c:	61 6e       	addc.b	@r14,	r1	
 23e:	69 65       	addc.b	@r5,	r9	
 240:	6c 2f       	jc	$-294    	;abs 0x11a
 242:	44 6f       	addc.b	r15,	r4	
 244:	77 6e       	addc.b	@r14+,	r7	
 246:	6c 6f       	addc.b	@r15,	r12	
 248:	61 64       	addc.b	@r4,	r1	
 24a:	73 2f       	jc	$-280    	;abs 0x132
 24c:	6c 69       	addc.b	@r9,	r12	
 24e:	62 65       	addc.b	@r5,	r2	
 250:	6d 62       	addc.b	#4,	r13	;r2 As==10
 252:	2d 6d       	addc	@r13,	r13	
 254:	61 73       	subc.b	#2,	r1	;r3 As==10
 256:	74 65       	addc.b	@r5+,	r4	
 258:	72 2f       	jc	$-282    	;abs 0x13e
 25a:	6c 69       	addc.b	@r9,	r12	
 25c:	62 73       	subc.b	#2,	r2	;r3 As==10
 25e:	68 65       	addc.b	@r5,	r8	
 260:	6c 6c       	addc.b	@r12,	r12	
 262:	2f 73       	subc	#2,	r15	;r3 As==10
 264:	72 63       	addc.b	#-1,	r2	;r3 As==11
 266:	00 6c       	addc	r12,	r0	
 268:	65 6e       	addc.b	@r14,	r5	
 26a:	32 00       	.word	0x0032;	????	
 26c:	73 68       	.word	0x6873;	????	Illegal as 2-op instr
 26e:	65 6c       	addc.b	@r12,	r5	
 270:	6c 5f       	add.b	@r15,	r12	
 272:	70 72       	subc.b	#8,	r0	;r2 As==11
 274:	6f 63       	addc.b	#2,	r15	;r3 As==10
 276:	65 73       	subc.b	#2,	r5	;r3 As==10
 278:	73 5f       	.word	0x5f73;	????	Illegal as 2-op instr
 27a:	63 6d       	.word	0x6d63;	????	Illegal as 2-op instr
 27c:	64 73       	subc.b	#2,	r4	;r3 As==10
 27e:	00 73       	sbc	r0		
 280:	68 65       	addc.b	@r5,	r8	
 282:	6c 6c       	addc.b	@r12,	r12	
 284:	5f 70 61 72 	subc.b	29281(r0),r15	;PC rel. 0x74e7
 288:	73 65       	.word	0x6573;	????	Illegal as 2-op instr
 28a:	5f 69 6e 74 	addc.b	29806(r9),r15	;0x746e(r9)
 28e:	00 73       	sbc	r0		
 290:	74 72       	subc.b	#8,	r4	;r2 As==11
 292:	31 00       	.word	0x0031;	????	
 294:	63 69       	.word	0x6963;	????	Illegal as 2-op instr
 296:	6f 5f       	add.b	@r15,	r15	
 298:	70 72       	subc.b	#8,	r0	;r2 As==11
 29a:	69 6e       	addc.b	@r14,	r9	
 29c:	74 62       	addc.b	#8,	r4	;r2 As==11
 29e:	00 63       	adc	r0		
 2a0:	69 6f       	addc.b	@r15,	r9	
 2a2:	5f 70 72 69 	subc.b	26994(r0),r15	;PC rel. 0x6c16
 2a6:	6e 74       	subc.b	@r4,	r14	
 2a8:	66 00       	.word	0x0066;	????	
 2aa:	5f 5f 62 75 	add.b	30050(r15),r15	;0x7562(r15)
 2ae:	69 6c       	addc.b	@r12,	r9	
 2b0:	74 69       	addc.b	@r9+,	r4	
 2b2:	6e 5f       	add.b	@r15,	r14	
 2b4:	76 61       	addc.b	@r1+,	r6	
 2b6:	5f 6c 69 73 	addc.b	29545(r12),r15	;0x7369(r12)
 2ba:	74 00       	.word	0x0074;	????	
 2bc:	63 69       	.word	0x6963;	????	Illegal as 2-op instr
 2be:	6f 5f       	add.b	@r15,	r15	
 2c0:	70 72       	subc.b	#8,	r0	;r2 As==11
 2c2:	69 6e       	addc.b	@r14,	r9	
 2c4:	74 69       	addc.b	@r9+,	r4	
 2c6:	00 5f       	add	r15,	r0	
 2c8:	78 74       	subc.b	@r4+,	r8	
 2ca:	6f 61       	addc.b	@r1,	r15	
 2cc:	00 62       	addc	r2,	r0	
 2ce:	61 64       	addc.b	@r4,	r1	
 2d0:	5f 66 6d 74 	addc.b	29805(r6),r15	;0x746d(r6)
 2d4:	00 73       	sbc	r0		
 2d6:	69 7a       	subc.b	@r10,	r9	
 2d8:	65 00       	.word	0x0065;	????	
 2da:	5f 70 75 74 	subc.b	29813(r0),r15	;PC rel. 0x7751
 2de:	68 00       	.word	0x0068;	????	
 2e0:	63 6f       	.word	0x6f63;	????	Illegal as 2-op instr
 2e2:	6e 69       	addc.b	@r9,	r14	
 2e4:	6f 2e       	jc	$-800    	;abs 0xffc4
 2e6:	63 00       	.word	0x0063;	????	
 2e8:	66 6f       	addc.b	@r15,	r6	
 2ea:	72 6d       	addc.b	@r13+,	r2	
 2ec:	61 74       	subc.b	@r4,	r1	
 2ee:	00 63       	adc	r0		
 2f0:	69 6f       	addc.b	@r15,	r9	
 2f2:	5f 70 72 69 	subc.b	26994(r0),r15	;PC rel. 0x6c66
 2f6:	6e 74       	subc.b	@r4,	r14	
 2f8:	00 2f       	jc	$-510    	;abs 0xfa
 2fa:	55 73       	subc.b	#1,	r5	;r3 As==01
 2fc:	65 72       	subc.b	#4,	r5	;r2 As==10
 2fe:	73 2f       	jc	$-280    	;abs 0x1e6
 300:	44 61       	addc.b	r1,	r4	
 302:	6e 69       	addc.b	@r9,	r14	
 304:	65 6c       	addc.b	@r12,	r5	
 306:	2f 44       	mov	@r4,	r15	
 308:	6f 77       	subc.b	@r7,	r15	
 30a:	6e 6c       	addc.b	@r12,	r14	
 30c:	6f 61       	addc.b	@r1,	r15	
 30e:	64 73       	subc.b	#2,	r4	;r3 As==10
 310:	2f 6c       	addc	@r12,	r15	
 312:	69 62       	addc.b	#4,	r9	;r2 As==10
 314:	65 6d       	addc.b	@r13,	r5	
 316:	62 2d       	jc	$+710    	;abs 0x5dc
 318:	6d 61       	addc.b	@r1,	r13	
 31a:	73 74       	.word	0x7473;	????	Illegal as 2-op instr
 31c:	65 72       	subc.b	#4,	r5	;r2 As==10
 31e:	2f 6c       	addc	@r12,	r15	
 320:	69 62       	addc.b	#4,	r9	;r2 As==10
 322:	63 6f       	.word	0x6f63;	????	Illegal as 2-op instr
 324:	6e 69       	addc.b	@r9,	r14	
 326:	6f 2f       	jc	$-288    	;abs 0x206
 328:	73 72       	.word	0x7273;	????	Illegal as 2-op instr
 32a:	63 00       	.word	0x0063;	????	
 32c:	5f 5f 67 6e 	add.b	28263(r15),r15	;0x6e67(r15)
 330:	75 63       	addc.b	#-1,	r5	;r3 As==11
 332:	5f 76 61 5f 	subc.b	24417(r6),r15	;0x5f61(r6)
 336:	6c 69       	addc.b	@r9,	r12	
 338:	73 74       	.word	0x7473;	????	Illegal as 2-op instr
 33a:	00 62       	addc	r2,	r0	
 33c:	75 66       	addc.b	@r6+,	r5	
 33e:	66 65       	addc.b	@r5,	r6	
 340:	72 00       	.word	0x0072;	????	
 342:	63 69       	.word	0x6963;	????	Illegal as 2-op instr
 344:	6f 5f       	add.b	@r15,	r15	
 346:	67 65       	addc.b	@r5,	r7	
 348:	74 63       	addc.b	#-1,	r4	;r3 As==11
 34a:	00 63       	adc	r0		
 34c:	69 6f       	addc.b	@r15,	r9	
 34e:	5f 70 72 69 	subc.b	26994(r0),r15	;PC rel. 0x6cc2
 352:	6e 74       	subc.b	@r4,	r14	
 354:	63 00       	.word	0x0063;	????	
 356:	63 6f       	.word	0x6f63;	????	Illegal as 2-op instr
 358:	6e 69       	addc.b	@r9,	r14	
 35a:	6f 5f       	add.b	@r15,	r15	
 35c:	73 65       	.word	0x6573;	????	Illegal as 2-op instr
 35e:	72 69       	addc.b	@r9+,	r2	
 360:	61 6c       	addc.b	@r12,	r1	
 362:	2e 63       	addc	#2,	r14	;r3 As==10
 364:	00 63       	adc	r0		
 366:	6c 6b       	addc.b	@r11,	r12	
 368:	73 70       	.word	0x7073;	????	Illegal as 2-op instr
 36a:	65 65       	addc.b	@r5,	r5	
 36c:	64 00       	.word	0x0064;	????	
 36e:	73 65       	.word	0x6573;	????	Illegal as 2-op instr
 370:	72 69       	addc.b	@r9+,	r2	
 372:	61 6c       	addc.b	@r12,	r1	
 374:	5f 72 65 63 	subc.b	&0x6365,r15	
 378:	76 5f       	add.b	@r15+,	r6	
 37a:	62 6c       	addc.b	@r12,	r2	
 37c:	6f 63       	addc.b	#2,	r15	;r3 As==10
 37e:	6b 69       	addc.b	@r9,	r11	
 380:	6e 67       	addc.b	@r7,	r14	
 382:	00 73       	sbc	r0		
 384:	65 72       	subc.b	#4,	r5	;r2 As==10
 386:	69 61       	addc.b	@r1,	r9	
 388:	6c 5f       	add.b	@r15,	r12	
 38a:	75 73       	subc.b	#-1,	r5	;r3 As==11
 38c:	63 69       	.word	0x6963;	????	Illegal as 2-op instr
 38e:	5f 6d 73 70 	addc.b	28787(r13),r15	;0x7073(r13)
 392:	34 33       	jn	$-406    	;abs 0x1fc
 394:	30 2e       	jc	$-926    	;abs 0xfff6
 396:	63 00       	.word	0x0063;	????	
 398:	5f 5f 55 43 	add.b	17237(r15),r15	;0x4355(r15)
 39c:	41 30       	jn	$+132    	;abs 0x420
 39e:	52 58 42 55 	add.b	21826(r8),r2	;0x5542(r8)
 3a2:	46 00       	.word	0x0046;	????	
 3a4:	5f 5f 55 43 	add.b	17237(r15),r15	;0x4355(r15)
 3a8:	41 30       	jn	$+132    	;abs 0x42c
 3aa:	43 54       	.word	0x5443;	????	Illegal as 2-op instr
 3ac:	4c 31       	jn	$+666    	;abs 0x646
 3ae:	00 73       	sbc	r0		
 3b0:	65 72       	subc.b	#4,	r5	;r2 As==10
 3b2:	69 61       	addc.b	@r1,	r9	
 3b4:	6c 5f       	add.b	@r15,	r12	
 3b6:	72 65       	addc.b	@r5+,	r2	
 3b8:	63 76       	.word	0x7663;	????	Illegal as 2-op instr
 3ba:	00 73       	sbc	r0		
 3bc:	65 72       	subc.b	#4,	r5	;r2 As==10
 3be:	69 61       	addc.b	@r1,	r9	
 3c0:	6c 5f       	add.b	@r15,	r12	
 3c2:	73 65       	.word	0x6573;	????	Illegal as 2-op instr
 3c4:	6e 64       	addc.b	@r4,	r14	
 3c6:	00 5f       	add	r15,	r0	
 3c8:	5f 50 31 53 	add.b	21297(r0),r15	;PC rel. 0x56fb
 3cc:	45 4c       	mov.b	r12,	r5	
 3ce:	32 00       	.word	0x0032;	????	
 3d0:	5f 5f 50 31 	add.b	12624(r15),r15	;0x3150(r15)
 3d4:	53 45       	.word	0x4553;	????	Illegal as 2-op instr
 3d6:	4c 00       	.word	0x004c;	????	
 3d8:	64 61       	addc.b	@r1,	r4	
 3da:	74 61       	addc.b	@r1+,	r4	
 3dc:	00 62       	addc	r2,	r0	
 3de:	61 75       	subc.b	@r5,	r1	
 3e0:	64 72       	subc.b	#4,	r4	;r2 As==10
 3e2:	61 74       	subc.b	@r4,	r1	
 3e4:	65 00       	.word	0x0065;	????	
 3e6:	2f 55       	add	@r5,	r15	
 3e8:	73 65       	.word	0x6573;	????	Illegal as 2-op instr
 3ea:	72 73       	subc.b	#-1,	r2	;r3 As==11
 3ec:	2f 44       	mov	@r4,	r15	
 3ee:	61 6e       	addc.b	@r14,	r1	
 3f0:	69 65       	addc.b	@r5,	r9	
 3f2:	6c 2f       	jc	$-294    	;abs 0x2cc
 3f4:	44 6f       	addc.b	r15,	r4	
 3f6:	77 6e       	addc.b	@r14+,	r7	
 3f8:	6c 6f       	addc.b	@r15,	r12	
 3fa:	61 64       	addc.b	@r4,	r1	
 3fc:	73 2f       	jc	$-280    	;abs 0x2e4
 3fe:	6c 69       	addc.b	@r9,	r12	
 400:	62 65       	addc.b	@r5,	r2	
 402:	6d 62       	addc.b	#4,	r13	;r2 As==10
 404:	2d 6d       	addc	@r13,	r13	
 406:	61 73       	subc.b	#2,	r1	;r3 As==10
 408:	74 65       	addc.b	@r5+,	r4	
 40a:	72 2f       	jc	$-282    	;abs 0x2f0
 40c:	6c 69       	addc.b	@r9,	r12	
 40e:	62 73       	subc.b	#2,	r2	;r3 As==10
 410:	65 72       	subc.b	#4,	r5	;r2 As==10
 412:	69 61       	addc.b	@r1,	r9	
 414:	6c 2f       	jc	$-294    	;abs 0x2ee
 416:	73 72       	.word	0x7273;	????	Illegal as 2-op instr
 418:	63 00       	.word	0x0063;	????	
 41a:	73 65       	.word	0x6573;	????	Illegal as 2-op instr
 41c:	72 69       	addc.b	@r9+,	r2	
 41e:	61 6c       	addc.b	@r12,	r1	
 420:	5f 63       	addc.b	#1,	r15	;r3 As==01
 422:	6c 6b       	addc.b	@r11,	r12	
 424:	5f 69 6e 69 	addc.b	26990(r9),r15	;0x696e(r9)
 428:	74 00       	.word	0x0074;	????	
 42a:	6c 6f       	addc.b	@r15,	r12	
 42c:	6e 67       	addc.b	@r7,	r14	
 42e:	20 6c       	addc	@r12,	r0	
 430:	6f 6e       	addc.b	@r14,	r15	
 432:	67 20       	jnz	$+208    	;abs 0x502
 434:	75 6e       	addc.b	@r14+,	r5	
 436:	73 69       	.word	0x6973;	????	Illegal as 2-op instr
 438:	67 6e       	addc.b	@r14,	r7	
 43a:	65 64       	addc.b	@r4,	r5	
 43c:	20 69       	addc	@r9,	r0	
 43e:	6e 74       	subc.b	@r4,	r14	
 440:	00 5f       	add	r15,	r0	
 442:	5f 55 43 41 	add.b	16707(r5),r15	;0x4143(r5)
 446:	30 54       	add	@r4+,	r0	
 448:	58 42 55 46 	mov.b	&0x4655,r8	
 44c:	00 73       	sbc	r0		
 44e:	65 72       	subc.b	#4,	r5	;r2 As==10
 450:	69 61       	addc.b	@r1,	r9	
 452:	6c 5f       	add.b	@r15,	r12	
 454:	69 6e       	addc.b	@r14,	r9	
 456:	69 74       	subc.b	@r4,	r9	
 458:	00 6c       	addc	r12,	r0	
 45a:	6f 6e       	addc.b	@r14,	r15	
 45c:	67 20       	jnz	$+208    	;abs 0x52c
 45e:	6c 6f       	addc.b	@r15,	r12	
 460:	6e 67       	addc.b	@r7,	r14	
 462:	20 69       	addc	@r9,	r0	
 464:	6e 74       	subc.b	@r4,	r14	
 466:	00 5f       	add	r15,	r0	
 468:	5f 55 43 41 	add.b	16707(r5),r15	;0x4143(r5)
 46c:	30 4d       	br	@r13+		
 46e:	43 54       	.word	0x5443;	????	Illegal as 2-op instr
 470:	4c 00       	.word	0x004c;	????	
 472:	73 65       	.word	0x6573;	????	Illegal as 2-op instr
 474:	72 69       	addc.b	@r9+,	r2	
 476:	61 6c       	addc.b	@r12,	r1	
 478:	5f 73       	subc.b	#1,	r15	;r3 As==01
 47a:	65 6e       	addc.b	@r14,	r5	
 47c:	64 5f       	add.b	@r15,	r4	
 47e:	62 6c       	addc.b	@r12,	r2	
 480:	6f 63       	addc.b	#2,	r15	;r3 As==10
 482:	6b 69       	addc.b	@r9,	r11	
 484:	6e 67       	addc.b	@r7,	r14	
 486:	00 5f       	add	r15,	r0	
 488:	5f 49 46 47 	mov.b	18246(r9),r15	;0x4746(r9)
 48c:	32 00       	.word	0x0032;	????	
 48e:	5f 5f 55 43 	add.b	17237(r15),r15	;0x4355(r15)
 492:	41 30       	jn	$+132    	;abs 0x516
 494:	42 52       	rla.b	r2		
 496:	30 00       	.word	0x0030;	????	
 498:	5f 5f 55 43 	add.b	17237(r15),r15	;0x4355(r15)
 49c:	41 30       	jn	$+132    	;abs 0x520
 49e:	42 52       	rla.b	r2		
 4a0:	31 00       	.word	0x0031;	????	
 4a2:	73 69       	.word	0x6973;	????	Illegal as 2-op instr
 4a4:	7a 65       	addc.b	@r5+,	r10	
 4a6:	5f 74 00 64 	subc.b	25600(r4),r15	;0x6400(r4)
 4aa:	73 74       	.word	0x7473;	????	Illegal as 2-op instr
 4ac:	30 00       	.word	0x0030;	????	
 4ae:	73 68       	.word	0x6873;	????	Illegal as 2-op instr
 4b0:	6f 72       	subc.b	#4,	r15	;r2 As==10
 4b2:	74 20       	jnz	$+234    	;abs 0x59c
 4b4:	75 6e       	addc.b	@r14+,	r5	
 4b6:	73 69       	.word	0x6973;	????	Illegal as 2-op instr
 4b8:	67 6e       	addc.b	@r14,	r7	
 4ba:	65 64       	addc.b	@r4,	r5	
 4bc:	20 69       	addc	@r9,	r0	
 4be:	6e 74       	subc.b	@r4,	r14	
 4c0:	00 75       	subc	r5,	r0	
 4c2:	5f 63       	addc.b	#1,	r15	;r3 As==01
 4c4:	68 61       	addc.b	@r1,	r8	
 4c6:	72 00       	.word	0x0072;	????	
 4c8:	6d 65       	addc.b	@r5,	r13	
 4ca:	6d 73       	subc.b	#2,	r13	;r3 As==10
 4cc:	65 74       	subc.b	@r4,	r5	
 4ce:	00 2f       	jc	$-510    	;abs 0x2d0
 4d0:	55 73       	subc.b	#1,	r5	;r3 As==01
 4d2:	65 72       	subc.b	#4,	r5	;r2 As==10
 4d4:	73 2f       	jc	$-280    	;abs 0x3bc
 4d6:	72 77       	subc.b	@r7+,	r2	
 4d8:	65 73       	subc.b	#2,	r5	;r3 As==10
 4da:	73 65       	.word	0x6573;	????	Illegal as 2-op instr
 4dc:	6c 73       	subc.b	#2,	r12	;r3 As==10
 4de:	2f 6d       	addc	@r13,	r15	
 4e0:	73 70       	.word	0x7073;	????	Illegal as 2-op instr
 4e2:	67 63       	addc.b	#2,	r7	;r3 As==10
 4e4:	63 2f       	jc	$-312    	;abs 0x3ac
 4e6:	6d 73       	subc.b	#2,	r13	;r3 As==10
 4e8:	70 34       	jge	$+226    	;abs 0x5ca
 4ea:	33 30       	jn	$+104    	;abs 0x552
 4ec:	2d 6c       	addc	@r12,	r13	
 4ee:	69 62       	addc.b	#4,	r9	;r2 As==10
 4f0:	63 2d       	jc	$+712    	;abs 0x7b8
 4f2:	32 30       	jn	$+102    	;abs 0x558
 4f4:	31 32       	jn	$-924    	;abs 0x158
 4f6:	30 32       	jn	$-926    	;abs 0x158
 4f8:	32 34       	jge	$+102    	;abs 0x55e
 4fa:	2f 73       	subc	#2,	r15	;r3 As==10
 4fc:	72 63       	addc.b	#-1,	r2	;r3 As==11
 4fe:	00 2e       	jc	$-1022   	;abs 0x100
 500:	2f 73       	subc	#2,	r15	;r3 As==10
 502:	74 72       	subc.b	#8,	r4	;r2 As==11
 504:	69 6e       	addc.b	@r14,	r9	
 506:	67 2f       	jc	$-304    	;abs 0x3d6
 508:	6d 65       	addc.b	@r5,	r13	
 50a:	6d 73       	subc.b	#2,	r13	;r3 As==10
 50c:	65 74       	subc.b	@r4,	r5	
 50e:	2e 63       	addc	#2,	r14	;r3 As==10
 510:	00 75       	subc	r5,	r0	
 512:	5f 69 6e 74 	addc.b	29806(r9),r15	;0x746e(r9)
 516:	00 6c       	addc	r12,	r0	
 518:	65 6e       	addc.b	@r14,	r5	
 51a:	67 74       	subc.b	@r4,	r7	
 51c:	68 00       	.word	0x0068;	????	

Disassembly of section .debug_loc:

00000000 <.debug_loc>:
   0:	76 c1       	bic.b	@r1+,	r6	
   2:	78 c1       	bic.b	@r1+,	r8	
   4:	02 00       	.word	0x0002;	????	
   6:	71 02       	.word	0x0271;	????	
   8:	78 c1       	bic.b	@r1+,	r8	
   a:	a4 c1 02 00 	bic	@r1,	2(r4)	;0x0002(r4)
   e:	71 06       	.word	0x0671;	????	
  10:	a4 c1 a6 c1 	bic	@r1,	-15962(r4);0xc1a6(r4)
  14:	02 00       	.word	0x0002;	????	
  16:	71 08       	.word	0x0871;	????	
  18:	a6 c1 aa c1 	bic	@r1,	-15958(r6);0xc1aa(r6)
  1c:	02 00       	.word	0x0002;	????	
  1e:	71 0a       	.word	0x0a71;	????	
  20:	aa c1 b2 c1 	bic	@r1,	-15950(r10);0xc1b2(r10)
  24:	02 00       	.word	0x0002;	????	
  26:	71 0c       	.word	0x0c71;	????	
  28:	b2 c1 c8 c1 	bic	@r1+,	&0xc1c8	
  2c:	02 00       	.word	0x0002;	????	
  2e:	71 06       	.word	0x0671;	????	
  30:	00 00       	.word	0x0000;	????	
  32:	00 00       	.word	0x0000;	????	
  34:	c8 c1 ca c1 	bic.b	r1,	-15926(r8);0xc1ca(r8)
  38:	02 00       	.word	0x0002;	????	
  3a:	71 02       	.word	0x0271;	????	
  3c:	ca c1 ee c1 	bic.b	r1,	-15890(r10);0xc1ee(r10)
  40:	02 00       	.word	0x0002;	????	
  42:	71 06       	.word	0x0671;	????	
  44:	ee c1 f2 c1 	bic.b	@r1,	-15886(r14);0xc1f2(r14)
  48:	02 00       	.word	0x0002;	????	
  4a:	71 08       	.word	0x0871;	????	
  4c:	f2 c1 f8 c1 	bic.b	@r1+,	&0xc1f8	
  50:	02 00       	.word	0x0002;	????	
  52:	71 0a       	.word	0x0a71;	????	
  54:	f8 c1 10 c2 	bic.b	@r1+,	-15856(r8);0xc210(r8)
  58:	02 00       	.word	0x0002;	????	
  5a:	71 06       	.word	0x0671;	????	
  5c:	00 00       	.word	0x0000;	????	
  5e:	00 00       	.word	0x0000;	????	
  60:	10 c2 14 c2 	bic	&0xc214,r0	
  64:	02 00       	.word	0x0002;	????	
  66:	71 02       	.word	0x0271;	????	
  68:	14 c2 2e c2 	bic	&0xc22e,r4	
  6c:	02 00       	.word	0x0002;	????	
  6e:	71 08       	.word	0x0871;	????	
  70:	2e c2       	bic	#4,	r14	;r2 As==10
  72:	32 c2       	dint			
  74:	02 00       	.word	0x0002;	????	
  76:	71 0a       	.word	0x0a71;	????	
  78:	32 c2       	dint			
  7a:	38 c2       	bic	#8,	r8	;r2 As==11
  7c:	02 00       	.word	0x0002;	????	
  7e:	71 0c       	.word	0x0c71;	????	
  80:	38 c2       	bic	#8,	r8	;r2 As==11
  82:	76 c2       	bic.b	#8,	r6	;r2 As==11
  84:	02 00       	.word	0x0002;	????	
  86:	71 08       	.word	0x0871;	????	
  88:	00 00       	.word	0x0000;	????	
  8a:	00 00       	.word	0x0000;	????	
  8c:	76 c2       	bic.b	#8,	r6	;r2 As==11
  8e:	78 c2       	bic.b	#8,	r8	;r2 As==11
  90:	02 00       	.word	0x0002;	????	
  92:	71 02       	.word	0x0271;	????	
  94:	78 c2       	bic.b	#8,	r8	;r2 As==11
  96:	8a c2 02 00 	bic	r2,	2(r10)	;0x0002(r10)
  9a:	71 04       	.word	0x0471;	????	
  9c:	00 00       	.word	0x0000;	????	
  9e:	00 00       	.word	0x0000;	????	
  a0:	3e c0 42 c0 	bic	#-16318,r14	;#0xc042
  a4:	02 00       	.word	0x0002;	????	
  a6:	71 00       	.word	0x0071;	????	
  a8:	42 c0       	bic.b	r0,	r2	
  aa:	6c c1       	bic.b	@r1,	r12	
  ac:	03 00       	.word	0x0003;	????	
  ae:	71 de       	bis.b	@r14+,	r1	
  b0:	00 00       	.word	0x0000;	????	
  b2:	00 00       	.word	0x0000;	????	
  b4:	00 8a       	sub	r10,	r0	
  b6:	c2 8c c2 02 	sub.b	r12,	&0x02c2	
  ba:	00 71       	subc	r1,	r0	
  bc:	00 8c       	sub	r12,	r0	
  be:	c2 5c c3 02 	add.b	r12,	&0x02c3	
  c2:	00 71       	subc	r1,	r0	
  c4:	02 00       	.word	0x0002;	????	
  c6:	00 00       	.word	0x0000;	????	
  c8:	00 00       	.word	0x0000;	????	
  ca:	00 04       	.word	0x0400;	????	
  cc:	00 01       	.word	0x0100;	????	
  ce:	00 5f       	add	r15,	r0	
  d0:	04 00       	.word	0x0004;	????	
  d2:	18 00       	.word	0x0018;	????	
  d4:	01 00       	.word	0x0001;	????	
  d6:	5e 00       	.word	0x005e;	????	
  d8:	00 00       	.word	0x0000;	????	
  da:	00 02       	.word	0x0200;	????	
  dc:	00 06       	.word	0x0600;	????	
  de:	00 02       	.word	0x0200;	????	
  e0:	00 30       	jn	$+2      	;abs 0xe2
  e2:	9f 06       	.word	0x069f;	????	
  e4:	00 08       	.word	0x0800;	????	
  e6:	00 01       	.word	0x0100;	????	
  e8:	00 5c       	add	r12,	r0	
  ea:	08 00       	.word	0x0008;	????	
  ec:	0c 00       	.word	0x000c;	????	
  ee:	01 00       	.word	0x0001;	????	
  f0:	5f 0c       	.word	0x0c5f;	????	
  f2:	00 18       	.word	0x1800;	????	
  f4:	00 01       	.word	0x0100;	????	
  f6:	00 5c       	add	r12,	r0	
  f8:	00 00       	.word	0x0000;	????	
  fa:	00 00       	.word	0x0000;	????	
  fc:	18 00       	.word	0x0018;	????	
  fe:	1a 00       	.word	0x001a;	????	
 100:	02 00       	.word	0x0002;	????	
 102:	71 02       	.word	0x0271;	????	
 104:	1a 00       	.word	0x001a;	????	
 106:	1c 00       	.word	0x001c;	????	
 108:	02 00       	.word	0x0002;	????	
 10a:	71 04       	.word	0x0471;	????	
 10c:	1c 00       	.word	0x001c;	????	
 10e:	1e 00       	.word	0x001e;	????	
 110:	02 00       	.word	0x0002;	????	
 112:	71 06       	.word	0x0671;	????	
 114:	1e 00       	.word	0x001e;	????	
 116:	5c 00       	.word	0x005c;	????	
 118:	02 00       	.word	0x0002;	????	
 11a:	71 08       	.word	0x0871;	????	
 11c:	00 00       	.word	0x0000;	????	
 11e:	00 00       	.word	0x0000;	????	
 120:	18 00       	.word	0x0018;	????	
 122:	4c 00       	.word	0x004c;	????	
 124:	01 00       	.word	0x0001;	????	
 126:	5f 4e 00 50 	mov.b	20480(r14),r15	;0x5000(r14)
 12a:	00 01       	.word	0x0100;	????	
 12c:	00 5f       	add	r15,	r0	
 12e:	52 00       	.word	0x0052;	????	
 130:	54 00       	.word	0x0054;	????	
 132:	01 00       	.word	0x0001;	????	
 134:	5f 00       	.word	0x005f;	????	
 136:	00 00       	.word	0x0000;	????	
 138:	00 26       	jz	$-1022   	;abs 0xfd3a
 13a:	00 40       	br	r0		
 13c:	00 01       	.word	0x0100;	????	
 13e:	00 5b       	add	r11,	r0	
 140:	00 00       	.word	0x0000;	????	
 142:	00 00       	.word	0x0000;	????	
 144:	5c 00       	.word	0x005c;	????	
 146:	60 00       	.word	0x0060;	????	
 148:	01 00       	.word	0x0001;	????	
 14a:	5f 00       	.word	0x005f;	????	
 14c:	00 00       	.word	0x0000;	????	
 14e:	00 5c       	add	r12,	r0	
 150:	00 60       	rlc	r0		
 152:	00 02       	.word	0x0200;	????	
 154:	00 30       	jn	$+2      	;abs 0x156
 156:	9f 60 00 70 	addc	28672(r0),256(r15);PC rel. 0x7158, 0x0100(r15)
 15a:	00 01 
 15c:	00 5d       	add	r13,	r0	
 15e:	82 00       	.word	0x0082;	????	
 160:	8c 00       	.word	0x008c;	????	
 162:	01 00       	.word	0x0001;	????	
 164:	5d 00       	.word	0x005d;	????	
 166:	00 00       	.word	0x0000;	????	
 168:	00 5c       	add	r12,	r0	
 16a:	00 60       	rlc	r0		
 16c:	00 02       	.word	0x0200;	????	
 16e:	00 30       	jn	$+2      	;abs 0x170
 170:	9f 00       	.word	0x009f;	????	
 172:	00 00       	.word	0x0000;	????	
 174:	00 60       	rlc	r0		
 176:	00 82       	sub	r2,	r0	
 178:	00 01       	.word	0x0100;	????	
 17a:	00 5c       	add	r12,	r0	
 17c:	84 00       	.word	0x0084;	????	
 17e:	88 00       	.word	0x0088;	????	
 180:	02 00       	.word	0x0002;	????	
 182:	7f 00       	.word	0x007f;	????	
 184:	88 00       	.word	0x0088;	????	
 186:	8c 00       	.word	0x008c;	????	
 188:	01 00       	.word	0x0001;	????	
 18a:	5c 00       	.word	0x005c;	????	
 18c:	00 00       	.word	0x0000;	????	
 18e:	00 8c       	sub	r12,	r0	
 190:	00 8e       	sub	r14,	r0	
 192:	00 02       	.word	0x0200;	????	
 194:	00 71       	subc	r1,	r0	
 196:	02 8e       	sub	r14,	r2	
 198:	00 90       	cmp	r0,	r0	
 19a:	00 02       	.word	0x0200;	????	
 19c:	00 71       	subc	r1,	r0	
 19e:	04 90       	cmp	r0,	r4	
 1a0:	00 92       	cmp	r2,	r0	
 1a2:	00 02       	.word	0x0200;	????	
 1a4:	00 71       	subc	r1,	r0	
 1a6:	06 92       	cmp	r2,	r6	
 1a8:	00 94       	cmp	r4,	r0	
 1aa:	00 02       	.word	0x0200;	????	
 1ac:	00 71       	subc	r1,	r0	
 1ae:	08 94       	cmp	r4,	r8	
 1b0:	00 96       	cmp	r6,	r0	
 1b2:	00 02       	.word	0x0200;	????	
 1b4:	00 71       	subc	r1,	r0	
 1b6:	0a 96       	cmp	r6,	r10	
 1b8:	00 98       	cmp	r8,	r0	
 1ba:	00 02       	.word	0x0200;	????	
 1bc:	00 71       	subc	r1,	r0	
 1be:	0c 98       	cmp	r8,	r12	
 1c0:	00 9a       	cmp	r10,	r0	
 1c2:	00 02       	.word	0x0200;	????	
 1c4:	00 71       	subc	r1,	r0	
 1c6:	0e 9a       	cmp	r10,	r14	
 1c8:	00 32       	jn	$-1022   	;abs 0xfdca
 1ca:	01 02       	.word	0x0201;	????	
 1cc:	00 71       	subc	r1,	r0	
 1ce:	10 00       	.word	0x0010;	????	
 1d0:	00 00       	.word	0x0000;	????	
 1d2:	00 8c       	sub	r12,	r0	
 1d4:	00 1a       	.word	0x1a00;	????	
 1d6:	01 01       	.word	0x0101;	????	
 1d8:	00 5f       	add	r15,	r0	
 1da:	1c 01       	.word	0x011c;	????	
 1dc:	1e 01       	.word	0x011e;	????	
 1de:	01 00       	.word	0x0001;	????	
 1e0:	5f 20       	jnz	$+192    	;abs 0x2a0
 1e2:	01 22       	jnz	$-1020   	;abs 0xfde6
 1e4:	01 01       	.word	0x0101;	????	
 1e6:	00 5f       	add	r15,	r0	
 1e8:	00 00       	.word	0x0000;	????	
 1ea:	00 00       	.word	0x0000;	????	
 1ec:	9a 00       	.word	0x009a;	????	
 1ee:	a6 00       	.word	0x00a6;	????	
 1f0:	02 00       	.word	0x0002;	????	
 1f2:	30 9f       	cmp	@r15+,	r0	
 1f4:	a6 00       	.word	0x00a6;	????	
 1f6:	30 01       	.word	0x0130;	????	
 1f8:	01 00       	.word	0x0001;	????	
 1fa:	5b 00       	.word	0x005b;	????	
 1fc:	00 00       	.word	0x0000;	????	
 1fe:	00 da       	bis	r10,	r0	
 200:	00 0c       	.word	0x0c00;	????	
 202:	01 01       	.word	0x0101;	????	
 204:	00 59       	add	r9,	r0	
 206:	00 00       	.word	0x0000;	????	
 208:	00 00       	.word	0x0000;	????	
 20a:	9a 00       	.word	0x009a;	????	
 20c:	a6 00       	.word	0x00a6;	????	
 20e:	02 00       	.word	0x0002;	????	
 210:	30 9f       	cmp	@r15+,	r0	
 212:	a6 00       	.word	0x00a6;	????	
 214:	da 00       	.word	0x00da;	????	
 216:	01 00       	.word	0x0001;	????	
 218:	5c 0e       	.word	0x0e5c;	????	
 21a:	01 32       	jn	$-1020   	;abs 0xfe1e
 21c:	01 01       	.word	0x0101;	????	
 21e:	00 5c       	add	r12,	r0	
 220:	00 00       	.word	0x0000;	????	
 222:	00 00       	.word	0x0000;	????	
 224:	9a 00       	.word	0x009a;	????	
 226:	a6 00       	.word	0x00a6;	????	
 228:	02 00       	.word	0x0002;	????	
 22a:	30 9f       	cmp	@r15+,	r0	
 22c:	a6 00       	.word	0x00a6;	????	
 22e:	2e 01       	.word	0x012e;	????	
 230:	01 00       	.word	0x0001;	????	
 232:	5a 00       	.word	0x005a;	????	
 234:	00 00       	.word	0x0000;	????	
 236:	00 32       	jn	$-1022   	;abs 0xfe38
 238:	01 34       	jge	$+4      	;abs 0x23c
 23a:	01 02       	.word	0x0201;	????	
 23c:	00 71       	subc	r1,	r0	
 23e:	02 34       	jge	$+6      	;abs 0x244
 240:	01 36       	jge	$-1020   	;abs 0xfe44
 242:	01 02       	.word	0x0201;	????	
 244:	00 71       	subc	r1,	r0	
 246:	04 36       	jge	$-1014   	;abs 0xfe50
 248:	01 38       	jl	$+4      	;abs 0x24c
 24a:	01 02       	.word	0x0201;	????	
 24c:	00 71       	subc	r1,	r0	
 24e:	06 38       	jl	$+14     	;abs 0x25c
 250:	01 3a       	jl	$-1020   	;abs 0xfe54
 252:	01 02       	.word	0x0201;	????	
 254:	00 71       	subc	r1,	r0	
 256:	08 3a       	jl	$-1006   	;abs 0xfe68
 258:	01 3c       	jmp	$+4      	;abs 0x25c
 25a:	01 02       	.word	0x0201;	????	
 25c:	00 71       	subc	r1,	r0	
 25e:	0a 3c       	jmp	$+22     	;abs 0x274
 260:	01 3e       	jmp	$-1020   	;abs 0xfe64
 262:	01 02       	.word	0x0201;	????	
 264:	00 71       	subc	r1,	r0	
 266:	0c 3e       	jmp	$-998    	;abs 0xfe80
 268:	01 42       	mov	r2,	r1	
 26a:	01 02       	.word	0x0201;	????	
 26c:	00 71       	subc	r1,	r0	
 26e:	0e 42       	mov	r2,	r14	
 270:	01 c2       	bic	r2,	r1	
 272:	01 03       	.word	0x0301;	????	
 274:	00 71       	subc	r1,	r0	
 276:	e0 00       	.word	0x00e0;	????	
 278:	00 00       	.word	0x0000;	????	
 27a:	00 00       	.word	0x0000;	????	
 27c:	32 01       	.word	0x0132;	????	
 27e:	4c 01       	.word	0x014c;	????	
 280:	01 00       	.word	0x0001;	????	
 282:	5f 4c 01 c0 	mov.b	-16383(r12),r15	;0xc001(r12)
 286:	01 01       	.word	0x0101;	????	
 288:	00 5b       	add	r11,	r0	
 28a:	00 00       	.word	0x0000;	????	
 28c:	00 00       	.word	0x0000;	????	
 28e:	32 01       	.word	0x0132;	????	
 290:	4c 01       	.word	0x014c;	????	
 292:	01 00       	.word	0x0001;	????	
 294:	5e 4c 01 ba 	mov.b	-17919(r12),r14	;0xba01(r12)
 298:	01 01       	.word	0x0101;	????	
 29a:	00 58       	add	r8,	r0	
 29c:	00 00       	.word	0x0000;	????	
 29e:	00 00       	.word	0x0000;	????	
 2a0:	46 01       	.word	0x0146;	????	
 2a2:	4c 01       	.word	0x014c;	????	
 2a4:	02 00       	.word	0x0002;	????	
 2a6:	30 9f       	cmp	@r15+,	r0	
 2a8:	4c 01       	.word	0x014c;	????	
 2aa:	be 01       	.word	0x01be;	????	
 2ac:	01 00       	.word	0x0001;	????	
 2ae:	5a 00       	.word	0x005a;	????	
 2b0:	00 00       	.word	0x0000;	????	
 2b2:	00 7c       	subc	r12,	r0	
 2b4:	01 94       	cmp	r4,	r1	
 2b6:	01 01       	.word	0x0101;	????	
 2b8:	00 5f       	add	r15,	r0	
 2ba:	a6 01       	.word	0x01a6;	????	
 2bc:	aa 01       	.word	0x01aa;	????	
 2be:	01 00       	.word	0x0001;	????	
 2c0:	5f ac 01 b0 	dadd.b	-20479(r12),r15	;0xb001(r12)
 2c4:	01 01       	.word	0x0101;	????	
 2c6:	00 5f       	add	r15,	r0	
 2c8:	00 00       	.word	0x0000;	????	
 2ca:	00 00       	.word	0x0000;	????	
 2cc:	5e 01       	.word	0x015e;	????	
 2ce:	66 01       	.word	0x0166;	????	
 2d0:	01 00       	.word	0x0001;	????	
 2d2:	5f 66 01 69 	addc.b	26881(r6),r15	;0x6901(r6)
 2d6:	01 01       	.word	0x0101;	????	
 2d8:	00 5d       	add	r13,	r0	
 2da:	00 00       	.word	0x0000;	????	
 2dc:	00 00       	.word	0x0000;	????	
 2de:	54 01       	.word	0x0154;	????	
 2e0:	5a 01       	.word	0x015a;	????	
 2e2:	01 00       	.word	0x0001;	????	
 2e4:	5f 5a 01 9a 	add.b	-26111(r10),r15	;0x9a01(r10)
 2e8:	01 01       	.word	0x0101;	????	
 2ea:	00 57       	add	r7,	r0	
 2ec:	a6 01       	.word	0x01a6;	????	
 2ee:	b0 01       	.word	0x01b0;	????	
 2f0:	01 00       	.word	0x0001;	????	
 2f2:	57 00       	.word	0x0057;	????	
 2f4:	00 00       	.word	0x0000;	????	
 2f6:	00 00       	.word	0x0000;	????	
 2f8:	00 02       	.word	0x0200;	????	
 2fa:	00 02       	.word	0x0200;	????	
 2fc:	00 71       	subc	r1,	r0	
 2fe:	02 02       	.word	0x0202;	????	
 300:	00 04       	.word	0x0400;	????	
 302:	00 02       	.word	0x0200;	????	
 304:	00 71       	subc	r1,	r0	
 306:	04 04       	.word	0x0404;	????	
 308:	00 06       	.word	0x0600;	????	
 30a:	00 02       	.word	0x0200;	????	
 30c:	00 71       	subc	r1,	r0	
 30e:	06 06       	.word	0x0606;	????	
 310:	00 08       	.word	0x0800;	????	
 312:	00 02       	.word	0x0200;	????	
 314:	00 71       	subc	r1,	r0	
 316:	08 08       	.word	0x0808;	????	
 318:	00 0a       	.word	0x0a00;	????	
 31a:	00 02       	.word	0x0200;	????	
 31c:	00 71       	subc	r1,	r0	
 31e:	0a 0a       	.word	0x0a0a;	????	
 320:	00 6a       	addc	r10,	r0	
 322:	00 02       	.word	0x0200;	????	
 324:	00 71       	subc	r1,	r0	
 326:	0c 00       	.word	0x000c;	????	
 328:	00 00       	.word	0x0000;	????	
 32a:	00 00       	.word	0x0000;	????	
 32c:	00 14       	.word	0x1400;	????	
 32e:	00 06       	.word	0x0600;	????	
 330:	00 5e       	add	r14,	r0	
 332:	93 02       	.word	0x0293;	????	
 334:	5f 93       	cmp.b	#1,	r15	;r3 As==01
 336:	02 14       	.word	0x1402;	????	
 338:	00 66       	addc	r6,	r0	
 33a:	00 06       	.word	0x0600;	????	
 33c:	00 5a       	add	r10,	r0	
 33e:	93 02       	.word	0x0293;	????	
 340:	5b 93       	cmp.b	#1,	r11	;r3 As==01
 342:	02 00       	.word	0x0002;	????	
 344:	00 00       	.word	0x0000;	????	
 346:	00 00       	.word	0x0000;	????	
 348:	00 14       	.word	0x1400;	????	
 34a:	00 01       	.word	0x0100;	????	
 34c:	00 5d       	add	r13,	r0	
 34e:	14 00       	.word	0x0014;	????	
 350:	60 00       	.word	0x0060;	????	
 352:	01 00       	.word	0x0001;	????	
 354:	57 00       	.word	0x0057;	????	
 356:	00 00       	.word	0x0000;	????	
 358:	00 2c       	jc	$+2      	;abs 0x35a
 35a:	00 32       	jn	$-1022   	;abs 0xff5c
 35c:	00 03       	.word	0x0300;	????	
 35e:	00 08       	.word	0x0800;	????	
 360:	30 9f       	cmp	@r15+,	r0	
 362:	32 00       	.word	0x0032;	????	
 364:	47 00       	.word	0x0047;	????	
 366:	01 00       	.word	0x0001;	????	
 368:	5f 00       	.word	0x005f;	????	
 36a:	00 00       	.word	0x0000;	????	
 36c:	00 2c       	jc	$+2      	;abs 0x36e
 36e:	00 47       	br	r7		
 370:	00 02       	.word	0x0200;	????	
 372:	00 77       	subc	r7,	r0	
 374:	7c 47       	mov.b	@r7+,	r12	
 376:	00 4c       	br	r12		
 378:	00 06       	.word	0x0600;	????	
 37a:	00 58       	add	r8,	r0	
 37c:	93 02       	.word	0x0293;	????	
 37e:	59 93       	cmp.b	#1,	r9	;r3 As==01
 380:	02 00       	.word	0x0002;	????	
 382:	00 00       	.word	0x0000;	????	
 384:	00 6a       	addc	r10,	r0	
 386:	00 6e       	addc	r14,	r0	
 388:	00 01       	.word	0x0100;	????	
 38a:	00 5f       	add	r15,	r0	
 38c:	00 00       	.word	0x0000;	????	
 38e:	00 00       	.word	0x0000;	????	
 390:	78 00       	.word	0x0078;	????	
 392:	7a 00       	.word	0x007a;	????	
 394:	02 00       	.word	0x0002;	????	
 396:	71 02       	.word	0x0271;	????	
 398:	7a 00       	.word	0x007a;	????	
 39a:	8c 00       	.word	0x008c;	????	
 39c:	02 00       	.word	0x0002;	????	
 39e:	71 04       	.word	0x0471;	????	
 3a0:	00 00       	.word	0x0000;	????	
 3a2:	00 00       	.word	0x0000;	????	
 3a4:	78 00       	.word	0x0078;	????	
 3a6:	7e 00       	.word	0x007e;	????	
 3a8:	01 00       	.word	0x0001;	????	
 3aa:	5f 00       	.word	0x005f;	????	
 3ac:	00 00       	.word	0x0000;	????	
 3ae:	00 7c       	subc	r12,	r0	
 3b0:	00 7e       	subc	r14,	r0	
 3b2:	00 02       	.word	0x0200;	????	
 3b4:	00 30       	jn	$+2      	;abs 0x3b6
 3b6:	9f 00       	.word	0x009f;	????	
 3b8:	00 00       	.word	0x0000;	????	
 3ba:	00 8c       	sub	r12,	r0	
 3bc:	00 8e       	sub	r14,	r0	
 3be:	00 02       	.word	0x0200;	????	
 3c0:	00 71       	subc	r1,	r0	
 3c2:	02 8e       	sub	r14,	r2	
 3c4:	00 90       	cmp	r0,	r0	
 3c6:	00 02       	.word	0x0200;	????	
 3c8:	00 71       	subc	r1,	r0	
 3ca:	04 90       	cmp	r0,	r4	
 3cc:	00 92       	cmp	r2,	r0	
 3ce:	00 02       	.word	0x0200;	????	
 3d0:	00 71       	subc	r1,	r0	
 3d2:	06 92       	cmp	r2,	r6	
 3d4:	00 96       	cmp	r6,	r0	
 3d6:	00 02       	.word	0x0200;	????	
 3d8:	00 71       	subc	r1,	r0	
 3da:	08 96       	cmp	r6,	r8	
 3dc:	00 06       	.word	0x0600;	????	
 3de:	01 02       	.word	0x0201;	????	
 3e0:	00 71       	subc	r1,	r0	
 3e2:	28 00       	.word	0x0028;	????	
 3e4:	00 00       	.word	0x0000;	????	
 3e6:	00 8c       	sub	r12,	r0	
 3e8:	00 9c       	cmp	r12,	r0	
 3ea:	00 01       	.word	0x0100;	????	
 3ec:	00 5f       	add	r15,	r0	
 3ee:	9c 00       	.word	0x009c;	????	
 3f0:	d0 00       	.word	0x00d0;	????	
 3f2:	01 00       	.word	0x0001;	????	
 3f4:	5b d0 00 d8 	bis.b	-10240(r0),r11	;PC rel. 0xdbf6
 3f8:	00 01       	.word	0x0100;	????	
 3fa:	00 5f       	add	r15,	r0	
 3fc:	d8 00       	.word	0x00d8;	????	
 3fe:	e0 00       	.word	0x00e0;	????	
 400:	01 00       	.word	0x0001;	????	
 402:	5b e0 00 e2 	xor.b	-7680(r0),r11	;PC rel. 0xe604
 406:	00 01       	.word	0x0100;	????	
 408:	00 5f       	add	r15,	r0	
 40a:	00 00       	.word	0x0000;	????	
 40c:	00 00       	.word	0x0000;	????	
 40e:	d2 00       	.word	0x00d2;	????	
 410:	d8 00       	.word	0x00d8;	????	
 412:	01 00       	.word	0x0001;	????	
 414:	5a 00       	.word	0x005a;	????	
 416:	00 00       	.word	0x0000;	????	
 418:	00 dc       	bis	r12,	r0	
 41a:	00 e2       	xor	r2,	r0	
 41c:	00 03       	.word	0x0300;	????	
 41e:	00 7a       	subc	r10,	r0	
 420:	01 9f       	cmp	r15,	r1	
 422:	00 00       	.word	0x0000;	????	
 424:	00 00       	.word	0x0000;	????	
 426:	06 01       	.word	0x0106;	????	
 428:	08 01       	.word	0x0108;	????	
 42a:	02 00       	.word	0x0002;	????	
 42c:	71 02       	.word	0x0271;	????	
 42e:	08 01       	.word	0x0108;	????	
 430:	0a 01       	.word	0x010a;	????	
 432:	02 00       	.word	0x0002;	????	
 434:	71 04       	.word	0x0471;	????	
 436:	0a 01       	.word	0x010a;	????	
 438:	40 01       	.word	0x0140;	????	
 43a:	02 00       	.word	0x0002;	????	
 43c:	71 06       	.word	0x0671;	????	
 43e:	00 00       	.word	0x0000;	????	
 440:	00 00       	.word	0x0000;	????	
 442:	06 01       	.word	0x0106;	????	
 444:	10 01       	.word	0x0110;	????	
 446:	01 00       	.word	0x0001;	????	
 448:	5f 10 01 3c 	rrc.b	15361(r15)	;0x3c01(r15)
 44c:	01 01       	.word	0x0101;	????	
 44e:	00 5a       	add	r10,	r0	
 450:	00 00       	.word	0x0000;	????	
 452:	00 00       	.word	0x0000;	????	
 454:	06 01       	.word	0x0106;	????	
 456:	10 01       	.word	0x0110;	????	
 458:	01 00       	.word	0x0001;	????	
 45a:	5e 00       	.word	0x005e;	????	
 45c:	00 00       	.word	0x0000;	????	
 45e:	00 10       	rrc	r0		
 460:	01 34       	jge	$+4      	;abs 0x464
 462:	01 01       	.word	0x0101;	????	
 464:	00 5b       	add	r11,	r0	
 466:	36 01       	.word	0x0136;	????	
 468:	3e 01       	.word	0x013e;	????	
 46a:	01 00       	.word	0x0001;	????	
 46c:	5b 00       	.word	0x005b;	????	
 46e:	00 00       	.word	0x0000;	????	
 470:	00 40       	br	r0		
 472:	01 42       	mov	r2,	r1	
 474:	01 02       	.word	0x0201;	????	
 476:	00 71       	subc	r1,	r0	
 478:	02 42       	mov	r2,	r2	
 47a:	01 44       	mov	r4,	r1	
 47c:	01 02       	.word	0x0201;	????	
 47e:	00 71       	subc	r1,	r0	
 480:	04 44       	mov	r4,	r4	
 482:	01 46       	mov	r6,	r1	
 484:	01 02       	.word	0x0201;	????	
 486:	00 71       	subc	r1,	r0	
 488:	06 46       	mov	r6,	r6	
 48a:	01 48       	mov	r8,	r1	
 48c:	01 02       	.word	0x0201;	????	
 48e:	00 71       	subc	r1,	r0	
 490:	08 48       	mov	r8,	r8	
 492:	01 6a       	addc	r10,	r1	
 494:	02 02       	.word	0x0202;	????	
 496:	00 71       	subc	r1,	r0	
 498:	0a 00       	.word	0x000a;	????	
 49a:	00 00       	.word	0x0000;	????	
 49c:	00 40       	br	r0		
 49e:	01 52       	add	r2,	r1	
 4a0:	01 02       	.word	0x0201;	????	
 4a2:	00 91       	cmp	r1,	r0	
 4a4:	00 52       	add	r2,	r0	
 4a6:	01 5e       	add	r14,	r1	
 4a8:	01 03       	.word	0x0301;	????	
 4aa:	00 7a       	subc	r10,	r0	
 4ac:	01 9f       	cmp	r15,	r1	
 4ae:	5e 01       	.word	0x015e;	????	
 4b0:	54 02       	.word	0x0254;	????	
 4b2:	01 00       	.word	0x0001;	????	
 4b4:	5a 54 02 56 	add.b	22018(r4),r10	;0x5602(r4)
 4b8:	02 03       	.word	0x0302;	????	
 4ba:	00 7a       	subc	r10,	r0	
 4bc:	01 9f       	cmp	r15,	r1	
 4be:	56 02       	.word	0x0256;	????	
 4c0:	5c 02       	.word	0x025c;	????	
 4c2:	01 00       	.word	0x0001;	????	
 4c4:	5a 5c 02 60 	add.b	24578(r12),r10	;0x6002(r12)
 4c8:	02 03       	.word	0x0302;	????	
 4ca:	00 7a       	subc	r10,	r0	
 4cc:	01 9f       	cmp	r15,	r1	
 4ce:	00 00       	.word	0x0000;	????	
 4d0:	00 00       	.word	0x0000;	????	
 4d2:	52 01       	.word	0x0152;	????	
 4d4:	5c 01       	.word	0x015c;	????	
 4d6:	01 00       	.word	0x0001;	????	
 4d8:	5f 5c 01 5e 	add.b	24065(r12),r15	;0x5e01(r12)
 4dc:	01 02       	.word	0x0201;	????	
 4de:	00 7a       	subc	r10,	r0	
 4e0:	01 5e       	add	r14,	r1	
 4e2:	01 a5       	dadd	r5,	r1	
 4e4:	01 02       	.word	0x0201;	????	
 4e6:	00 7a       	subc	r10,	r0	
 4e8:	7f a8       	dadd.b	@r8+,	r15	
 4ea:	01 ae       	dadd	r14,	r1	
 4ec:	01 01       	.word	0x0101;	????	
 4ee:	00 5f       	add	r15,	r0	
 4f0:	ae 01       	.word	0x01ae;	????	
 4f2:	b1 01       	.word	0x01b1;	????	
 4f4:	02 00       	.word	0x0002;	????	
 4f6:	7a 7f       	subc.b	@r15+,	r10	
 4f8:	b6 01       	.word	0x01b6;	????	
 4fa:	ce 01       	.word	0x01ce;	????	
 4fc:	01 00       	.word	0x0001;	????	
 4fe:	5f ce 01 d1 	bic.b	-12031(r14),r15	;0xd101(r14)
 502:	01 02       	.word	0x0201;	????	
 504:	00 7a       	subc	r10,	r0	
 506:	7f e0 01 08 	xor.b	#2049,	r15	;#0x0801
 50a:	02 01       	.word	0x0102;	????	
 50c:	00 5f       	add	r15,	r0	
 50e:	08 02       	.word	0x0208;	????	
 510:	0b 02       	.word	0x020b;	????	
 512:	02 00       	.word	0x0002;	????	
 514:	7a 7f       	subc.b	@r15+,	r10	
 516:	1c 02       	.word	0x021c;	????	
 518:	24 02       	.word	0x0224;	????	
 51a:	01 00       	.word	0x0001;	????	
 51c:	5f 24       	jz	$+192    	;abs 0x5dc
 51e:	02 33       	jn	$-506    	;abs 0x324
 520:	02 02       	.word	0x0202;	????	
 522:	00 7a       	subc	r10,	r0	
 524:	7f 54       	add.b	@r4+,	r15	
 526:	02 59       	add	r9,	r2	
 528:	02 01       	.word	0x0102;	????	
 52a:	00 5f       	add	r15,	r0	
 52c:	5c 02       	.word	0x025c;	????	
 52e:	60 02       	.word	0x0260;	????	
 530:	02 00       	.word	0x0002;	????	
 532:	7a 00       	.word	0x007a;	????	
 534:	60 02       	.word	0x0260;	????	
 536:	6a 02       	.word	0x026a;	????	
 538:	01 00       	.word	0x0001;	????	
 53a:	5f 00       	.word	0x005f;	????	
 53c:	00 00       	.word	0x0000;	????	
 53e:	00 bc       	bit	r12,	r0	
 540:	01 ca       	bic	r10,	r1	
 542:	01 02       	.word	0x0201;	????	
 544:	00 79       	subc	r9,	r0	
 546:	7e ca       	bic.b	@r10+,	r14	
 548:	01 e0       	xor	r0,	r1	
 54a:	01 01       	.word	0x0101;	????	
 54c:	00 5b       	add	r11,	r0	
 54e:	22 02       	.word	0x0222;	????	
 550:	33 02       	.word	0x0233;	????	
 552:	02 00       	.word	0x0002;	????	
 554:	79 7e       	subc.b	@r14+,	r9	
 556:	33 02       	.word	0x0233;	????	
 558:	54 02       	.word	0x0254;	????	
 55a:	01 00       	.word	0x0001;	????	
 55c:	5b 00       	.word	0x005b;	????	
 55e:	00 00       	.word	0x0000;	????	
 560:	00 ea       	xor	r10,	r0	
 562:	01 04       	.word	0x0401;	????	
 564:	02 08       	.word	0x0802;	????	
 566:	00 78       	subc	r8,	r0	
 568:	7c 93       	cmp.b	#-1,	r12	;r3 As==11
 56a:	02 78       	subc	r8,	r2	
 56c:	7e 93       	cmp.b	#-1,	r14	;r3 As==11
 56e:	02 04       	.word	0x0402;	????	
 570:	02 0b       	.word	0x0b02;	????	
 572:	02 07       	.word	0x0702;	????	
 574:	00 5c       	add	r12,	r0	
 576:	93 02       	.word	0x0293;	????	
 578:	78 7e       	subc.b	@r14+,	r8	
 57a:	93 02       	.word	0x0293;	????	
 57c:	0b 02       	.word	0x020b;	????	
 57e:	1a 02       	.word	0x021a;	????	
 580:	06 00       	.word	0x0006;	????	
 582:	59 93       	cmp.b	#1,	r9	;r3 As==01
 584:	02 5b       	add	r11,	r2	
 586:	93 02       	.word	0x0293;	????	
 588:	00 00       	.word	0x0000;	????	
 58a:	00 00       	.word	0x0000;	????	
 58c:	50 01       	.word	0x0150;	????	
 58e:	a0 01       	.word	0x01a0;	????	
 590:	01 00       	.word	0x0001;	????	
 592:	5b a0 01 a8 	dadd.b	-22527(r0),r11	;PC rel. 0xad95
 596:	01 01       	.word	0x0101;	????	
 598:	00 59       	add	r9,	r0	
 59a:	a8 01       	.word	0x01a8;	????	
 59c:	ac 01       	.word	0x01ac;	????	
 59e:	01 00       	.word	0x0001;	????	
 5a0:	5b ac 01 b6 	dadd.b	-18943(r12),r11	;0xb601(r12)
 5a4:	01 01       	.word	0x0101;	????	
 5a6:	00 59       	add	r9,	r0	
 5a8:	b6 01       	.word	0x01b6;	????	
 5aa:	ba 01       	.word	0x01ba;	????	
 5ac:	01 00       	.word	0x0001;	????	
 5ae:	5b ba 01 e0 	bit.b	-8191(r10),r11	;0xe001(r10)
 5b2:	01 01       	.word	0x0101;	????	
 5b4:	00 59       	add	r9,	r0	
 5b6:	e0 01       	.word	0x01e0;	????	
 5b8:	e4 01       	.word	0x01e4;	????	
 5ba:	01 00       	.word	0x0001;	????	
 5bc:	5b e4 01 1c 	xor.b	7169(r4),r11	;0x1c01(r4)
 5c0:	02 01       	.word	0x0102;	????	
 5c2:	00 58       	add	r8,	r0	
 5c4:	1c 02       	.word	0x021c;	????	
 5c6:	20 02       	.word	0x0220;	????	
 5c8:	01 00       	.word	0x0001;	????	
 5ca:	5b 20       	jnz	$+184    	;abs 0x682
 5cc:	02 54       	add	r4,	r2	
 5ce:	02 01       	.word	0x0102;	????	
 5d0:	00 59       	add	r9,	r0	
 5d2:	54 02       	.word	0x0254;	????	
 5d4:	68 02       	.word	0x0268;	????	
 5d6:	01 00       	.word	0x0001;	????	
 5d8:	5b 00       	.word	0x005b;	????	
 5da:	00 00       	.word	0x0000;	????	
 5dc:	00 00       	.word	0x0000;	????	
 5de:	00 03       	.word	0x0300;	????	
 5e0:	00 01       	.word	0x0100;	????	
 5e2:	00 5f       	add	r15,	r0	
 5e4:	00 00       	.word	0x0000;	????	
 5e6:	00 00       	.word	0x0000;	????	
 5e8:	2a 01       	.word	0x012a;	????	
 5ea:	37 01       	.word	0x0137;	????	
 5ec:	01 00       	.word	0x0001;	????	
 5ee:	5f 00       	.word	0x005f;	????	
 5f0:	00 00       	.word	0x0000;	????	
 5f2:	00 00       	.word	0x0000;	????	
 5f4:	00 02       	.word	0x0200;	????	
 5f6:	00 02       	.word	0x0200;	????	
 5f8:	00 71       	subc	r1,	r0	
 5fa:	02 02       	.word	0x0202;	????	
 5fc:	00 04       	.word	0x0400;	????	
 5fe:	00 02       	.word	0x0200;	????	
 600:	00 71       	subc	r1,	r0	
 602:	04 04       	.word	0x0404;	????	
 604:	00 06       	.word	0x0600;	????	
 606:	00 02       	.word	0x0200;	????	
 608:	00 71       	subc	r1,	r0	
 60a:	06 06       	.word	0x0606;	????	
 60c:	00 08       	.word	0x0800;	????	
 60e:	00 02       	.word	0x0200;	????	
 610:	00 71       	subc	r1,	r0	
 612:	08 08       	.word	0x0808;	????	
 614:	00 6a       	addc	r10,	r0	
 616:	00 02       	.word	0x0200;	????	
 618:	00 71       	subc	r1,	r0	
 61a:	0a 00       	.word	0x000a;	????	
 61c:	00 00       	.word	0x0000;	????	
 61e:	00 00       	.word	0x0000;	????	
 620:	00 22       	jnz	$-1022   	;abs 0x222
 622:	00 01       	.word	0x0100;	????	
 624:	00 5e       	add	r14,	r0	
 626:	00 00       	.word	0x0000;	????	
 628:	00 00       	.word	0x0000;	????	
 62a:	00 00       	.word	0x0000;	????	
 62c:	5a 00       	.word	0x005a;	????	
 62e:	01 00       	.word	0x0001;	????	
 630:	5d 00       	.word	0x005d;	????	
 632:	00 00       	.word	0x0000;	????	
 634:	00 2e       	jc	$-1022   	;abs 0x236
 636:	00 32       	jn	$-1022   	;abs 0x238
 638:	00 05       	.word	0x0500;	????	
 63a:	00 7f       	subc	r15,	r0	
 63c:	00 31       	jn	$+514    	;abs 0x83e
 63e:	1a 9f 32 00 	cmp	50(r15),r10	;0x0032(r15)
 642:	3c 00       	.word	0x003c;	????	
 644:	02 00       	.word	0x0002;	????	
 646:	31 9f       	cmp	@r15+,	r1	
 648:	3c 00       	.word	0x003c;	????	
 64a:	3e 00       	.word	0x003e;	????	
 64c:	02 00       	.word	0x0002;	????	
 64e:	30 9f       	cmp	@r15+,	r0	
 650:	3e 00       	.word	0x003e;	????	
 652:	40 00       	.word	0x0040;	????	
 654:	05 00       	.word	0x0005;	????	
 656:	7f 00       	.word	0x007f;	????	
 658:	31 1a       	.word	0x1a31;	????	
 65a:	9f 46 00 4a 	mov	18944(r6),256(r15);0x4a00(r6), 0x0100(r15)
 65e:	00 01 
 660:	00 5c       	add	r12,	r0	
 662:	4a 00       	.word	0x004a;	????	
 664:	58 00       	.word	0x0058;	????	
 666:	01 00       	.word	0x0001;	????	
 668:	58 58 00 5a 	add.b	23040(r8),r8	;0x5a00(r8)
 66c:	00 05       	.word	0x0500;	????	
 66e:	00 7d       	subc	r13,	r0	
 670:	00 31       	jn	$+514    	;abs 0x872
 672:	1a 9f 5a 00 	cmp	90(r15),r10	;0x005a(r15)
 676:	5c 00       	.word	0x005c;	????	
 678:	01 00       	.word	0x0001;	????	
 67a:	5d 5c 00 60 	add.b	24576(r12),r13	;0x6000(r12)
 67e:	00 02       	.word	0x0200;	????	
 680:	00 31       	jn	$+514    	;abs 0x882
 682:	9f 00       	.word	0x009f;	????	
 684:	00 00       	.word	0x0000;	????	
 686:	00 24       	jz	$+2      	;abs 0x688
 688:	00 60       	rlc	r0		
 68a:	00 01       	.word	0x0100;	????	
 68c:	00 5b       	add	r11,	r0	
 68e:	00 00       	.word	0x0000;	????	
 690:	00 00       	.word	0x0000;	????	
 692:	08 00       	.word	0x0008;	????	
 694:	12 00       	.word	0x0012;	????	
 696:	01 00       	.word	0x0001;	????	
 698:	5f 12 00 20 	push.b	8192(r15)	;0x2000(r15)
 69c:	00 01       	.word	0x0100;	????	
 69e:	00 5c       	add	r12,	r0	
 6a0:	20 00       	.word	0x0020;	????	
 6a2:	3c 00       	.word	0x003c;	????	
 6a4:	01 00       	.word	0x0001;	????	
 6a6:	5f 3c       	jmp	$+192    	;abs 0x766
 6a8:	00 3e       	jmp	$-1022   	;abs 0x2aa
 6aa:	00 01       	.word	0x0100;	????	
 6ac:	00 59       	add	r9,	r0	
 6ae:	3e 00       	.word	0x003e;	????	
 6b0:	40 00       	.word	0x0040;	????	
 6b2:	01 00       	.word	0x0001;	????	
 6b4:	5f 40 00 4a 	mov.b	18944(r0),r15	;PC rel. 0x50b6
 6b8:	00 01       	.word	0x0100;	????	
 6ba:	00 59       	add	r9,	r0	
 6bc:	4a 00       	.word	0x004a;	????	
 6be:	5c 00       	.word	0x005c;	????	
 6c0:	01 00       	.word	0x0001;	????	
 6c2:	5a 5c 00 60 	add.b	24576(r12),r10	;0x6000(r12)
 6c6:	00 01       	.word	0x0100;	????	
 6c8:	00 5c       	add	r12,	r0	
 6ca:	00 00       	.word	0x0000;	????	
	...

Disassembly of section .debug_ranges:

00000000 <.debug_ranges>:
   0:	76 c1       	bic.b	@r1+,	r6	
   2:	5c c3       	bic.b	#1,	r12	;r3 As==01
   4:	3e c0 6c c1 	bic	#-16020,r14	;#0xc16c
   8:	00 00       	.word	0x0000;	????	
	...
